
bomb:     file format elf32-i386


Disassembly of section .init:

00002000 <_init>:
    2000:	f3 0f 1e fb          	endbr32 
    2004:	53                   	push   %ebx
    2005:	83 ec 08             	sub    $0x8,%esp
    2008:	e8 23 04 00 00       	call   2430 <__x86.get_pc_thunk.bx>
    200d:	81 c3 5f 4f 00 00    	add    $0x4f5f,%ebx
    2013:	8b 83 88 00 00 00    	mov    0x88(%ebx),%eax
    2019:	85 c0                	test   %eax,%eax
    201b:	74 02                	je     201f <_init+0x1f>
    201d:	ff d0                	call   *%eax
    201f:	83 c4 08             	add    $0x8,%esp
    2022:	5b                   	pop    %ebx
    2023:	c3                   	ret    

Disassembly of section .plt:

00002030 <.plt>:
    2030:	ff b3 04 00 00 00    	pushl  0x4(%ebx)
    2036:	ff a3 08 00 00 00    	jmp    *0x8(%ebx)
    203c:	0f 1f 40 00          	nopl   0x0(%eax)
    2040:	f3 0f 1e fb          	endbr32 
    2044:	68 00 00 00 00       	push   $0x0
    2049:	e9 e2 ff ff ff       	jmp    2030 <.plt>
    204e:	66 90                	xchg   %ax,%ax
    2050:	f3 0f 1e fb          	endbr32 
    2054:	68 08 00 00 00       	push   $0x8
    2059:	e9 d2 ff ff ff       	jmp    2030 <.plt>
    205e:	66 90                	xchg   %ax,%ax
    2060:	f3 0f 1e fb          	endbr32 
    2064:	68 10 00 00 00       	push   $0x10
    2069:	e9 c2 ff ff ff       	jmp    2030 <.plt>
    206e:	66 90                	xchg   %ax,%ax
    2070:	f3 0f 1e fb          	endbr32 
    2074:	68 18 00 00 00       	push   $0x18
    2079:	e9 b2 ff ff ff       	jmp    2030 <.plt>
    207e:	66 90                	xchg   %ax,%ax
    2080:	f3 0f 1e fb          	endbr32 
    2084:	68 20 00 00 00       	push   $0x20
    2089:	e9 a2 ff ff ff       	jmp    2030 <.plt>
    208e:	66 90                	xchg   %ax,%ax
    2090:	f3 0f 1e fb          	endbr32 
    2094:	68 28 00 00 00       	push   $0x28
    2099:	e9 92 ff ff ff       	jmp    2030 <.plt>
    209e:	66 90                	xchg   %ax,%ax
    20a0:	f3 0f 1e fb          	endbr32 
    20a4:	68 30 00 00 00       	push   $0x30
    20a9:	e9 82 ff ff ff       	jmp    2030 <.plt>
    20ae:	66 90                	xchg   %ax,%ax
    20b0:	f3 0f 1e fb          	endbr32 
    20b4:	68 38 00 00 00       	push   $0x38
    20b9:	e9 72 ff ff ff       	jmp    2030 <.plt>
    20be:	66 90                	xchg   %ax,%ax
    20c0:	f3 0f 1e fb          	endbr32 
    20c4:	68 40 00 00 00       	push   $0x40
    20c9:	e9 62 ff ff ff       	jmp    2030 <.plt>
    20ce:	66 90                	xchg   %ax,%ax
    20d0:	f3 0f 1e fb          	endbr32 
    20d4:	68 48 00 00 00       	push   $0x48
    20d9:	e9 52 ff ff ff       	jmp    2030 <.plt>
    20de:	66 90                	xchg   %ax,%ax
    20e0:	f3 0f 1e fb          	endbr32 
    20e4:	68 50 00 00 00       	push   $0x50
    20e9:	e9 42 ff ff ff       	jmp    2030 <.plt>
    20ee:	66 90                	xchg   %ax,%ax
    20f0:	f3 0f 1e fb          	endbr32 
    20f4:	68 58 00 00 00       	push   $0x58
    20f9:	e9 32 ff ff ff       	jmp    2030 <.plt>
    20fe:	66 90                	xchg   %ax,%ax
    2100:	f3 0f 1e fb          	endbr32 
    2104:	68 60 00 00 00       	push   $0x60
    2109:	e9 22 ff ff ff       	jmp    2030 <.plt>
    210e:	66 90                	xchg   %ax,%ax
    2110:	f3 0f 1e fb          	endbr32 
    2114:	68 68 00 00 00       	push   $0x68
    2119:	e9 12 ff ff ff       	jmp    2030 <.plt>
    211e:	66 90                	xchg   %ax,%ax
    2120:	f3 0f 1e fb          	endbr32 
    2124:	68 70 00 00 00       	push   $0x70
    2129:	e9 02 ff ff ff       	jmp    2030 <.plt>
    212e:	66 90                	xchg   %ax,%ax
    2130:	f3 0f 1e fb          	endbr32 
    2134:	68 78 00 00 00       	push   $0x78
    2139:	e9 f2 fe ff ff       	jmp    2030 <.plt>
    213e:	66 90                	xchg   %ax,%ax
    2140:	f3 0f 1e fb          	endbr32 
    2144:	68 80 00 00 00       	push   $0x80
    2149:	e9 e2 fe ff ff       	jmp    2030 <.plt>
    214e:	66 90                	xchg   %ax,%ax
    2150:	f3 0f 1e fb          	endbr32 
    2154:	68 88 00 00 00       	push   $0x88
    2159:	e9 d2 fe ff ff       	jmp    2030 <.plt>
    215e:	66 90                	xchg   %ax,%ax
    2160:	f3 0f 1e fb          	endbr32 
    2164:	68 90 00 00 00       	push   $0x90
    2169:	e9 c2 fe ff ff       	jmp    2030 <.plt>
    216e:	66 90                	xchg   %ax,%ax
    2170:	f3 0f 1e fb          	endbr32 
    2174:	68 98 00 00 00       	push   $0x98
    2179:	e9 b2 fe ff ff       	jmp    2030 <.plt>
    217e:	66 90                	xchg   %ax,%ax
    2180:	f3 0f 1e fb          	endbr32 
    2184:	68 a0 00 00 00       	push   $0xa0
    2189:	e9 a2 fe ff ff       	jmp    2030 <.plt>
    218e:	66 90                	xchg   %ax,%ax
    2190:	f3 0f 1e fb          	endbr32 
    2194:	68 a8 00 00 00       	push   $0xa8
    2199:	e9 92 fe ff ff       	jmp    2030 <.plt>
    219e:	66 90                	xchg   %ax,%ax
    21a0:	f3 0f 1e fb          	endbr32 
    21a4:	68 b0 00 00 00       	push   $0xb0
    21a9:	e9 82 fe ff ff       	jmp    2030 <.plt>
    21ae:	66 90                	xchg   %ax,%ax
    21b0:	f3 0f 1e fb          	endbr32 
    21b4:	68 b8 00 00 00       	push   $0xb8
    21b9:	e9 72 fe ff ff       	jmp    2030 <.plt>
    21be:	66 90                	xchg   %ax,%ax
    21c0:	f3 0f 1e fb          	endbr32 
    21c4:	68 c0 00 00 00       	push   $0xc0
    21c9:	e9 62 fe ff ff       	jmp    2030 <.plt>
    21ce:	66 90                	xchg   %ax,%ax
    21d0:	f3 0f 1e fb          	endbr32 
    21d4:	68 c8 00 00 00       	push   $0xc8
    21d9:	e9 52 fe ff ff       	jmp    2030 <.plt>
    21de:	66 90                	xchg   %ax,%ax
    21e0:	f3 0f 1e fb          	endbr32 
    21e4:	68 d0 00 00 00       	push   $0xd0
    21e9:	e9 42 fe ff ff       	jmp    2030 <.plt>
    21ee:	66 90                	xchg   %ax,%ax
    21f0:	f3 0f 1e fb          	endbr32 
    21f4:	68 d8 00 00 00       	push   $0xd8
    21f9:	e9 32 fe ff ff       	jmp    2030 <.plt>
    21fe:	66 90                	xchg   %ax,%ax
    2200:	f3 0f 1e fb          	endbr32 
    2204:	68 e0 00 00 00       	push   $0xe0
    2209:	e9 22 fe ff ff       	jmp    2030 <.plt>
    220e:	66 90                	xchg   %ax,%ax

Disassembly of section .plt.got:

00002210 <__cxa_finalize@plt>:
    2210:	f3 0f 1e fb          	endbr32 
    2214:	ff a3 84 00 00 00    	jmp    *0x84(%ebx)
    221a:	66 0f 1f 44 00 00    	nopw   0x0(%eax,%eax,1)

Disassembly of section .plt.sec:

00002220 <read@plt>:
    2220:	f3 0f 1e fb          	endbr32 
    2224:	ff a3 0c 00 00 00    	jmp    *0xc(%ebx)
    222a:	66 0f 1f 44 00 00    	nopw   0x0(%eax,%eax,1)

00002230 <fflush@plt>:
    2230:	f3 0f 1e fb          	endbr32 
    2234:	ff a3 10 00 00 00    	jmp    *0x10(%ebx)
    223a:	66 0f 1f 44 00 00    	nopw   0x0(%eax,%eax,1)

00002240 <fgets@plt>:
    2240:	f3 0f 1e fb          	endbr32 
    2244:	ff a3 14 00 00 00    	jmp    *0x14(%ebx)
    224a:	66 0f 1f 44 00 00    	nopw   0x0(%eax,%eax,1)

00002250 <signal@plt>:
    2250:	f3 0f 1e fb          	endbr32 
    2254:	ff a3 18 00 00 00    	jmp    *0x18(%ebx)
    225a:	66 0f 1f 44 00 00    	nopw   0x0(%eax,%eax,1)

00002260 <sleep@plt>:
    2260:	f3 0f 1e fb          	endbr32 
    2264:	ff a3 1c 00 00 00    	jmp    *0x1c(%ebx)
    226a:	66 0f 1f 44 00 00    	nopw   0x0(%eax,%eax,1)

00002270 <alarm@plt>:
    2270:	f3 0f 1e fb          	endbr32 
    2274:	ff a3 20 00 00 00    	jmp    *0x20(%ebx)
    227a:	66 0f 1f 44 00 00    	nopw   0x0(%eax,%eax,1)

00002280 <__stack_chk_fail@plt>:
    2280:	f3 0f 1e fb          	endbr32 
    2284:	ff a3 24 00 00 00    	jmp    *0x24(%ebx)
    228a:	66 0f 1f 44 00 00    	nopw   0x0(%eax,%eax,1)

00002290 <strcpy@plt>:
    2290:	f3 0f 1e fb          	endbr32 
    2294:	ff a3 28 00 00 00    	jmp    *0x28(%ebx)
    229a:	66 0f 1f 44 00 00    	nopw   0x0(%eax,%eax,1)

000022a0 <gethostname@plt>:
    22a0:	f3 0f 1e fb          	endbr32 
    22a4:	ff a3 2c 00 00 00    	jmp    *0x2c(%ebx)
    22aa:	66 0f 1f 44 00 00    	nopw   0x0(%eax,%eax,1)

000022b0 <getenv@plt>:
    22b0:	f3 0f 1e fb          	endbr32 
    22b4:	ff a3 30 00 00 00    	jmp    *0x30(%ebx)
    22ba:	66 0f 1f 44 00 00    	nopw   0x0(%eax,%eax,1)

000022c0 <malloc@plt>:
    22c0:	f3 0f 1e fb          	endbr32 
    22c4:	ff a3 34 00 00 00    	jmp    *0x34(%ebx)
    22ca:	66 0f 1f 44 00 00    	nopw   0x0(%eax,%eax,1)

000022d0 <puts@plt>:
    22d0:	f3 0f 1e fb          	endbr32 
    22d4:	ff a3 38 00 00 00    	jmp    *0x38(%ebx)
    22da:	66 0f 1f 44 00 00    	nopw   0x0(%eax,%eax,1)

000022e0 <__memmove_chk@plt>:
    22e0:	f3 0f 1e fb          	endbr32 
    22e4:	ff a3 3c 00 00 00    	jmp    *0x3c(%ebx)
    22ea:	66 0f 1f 44 00 00    	nopw   0x0(%eax,%eax,1)

000022f0 <exit@plt>:
    22f0:	f3 0f 1e fb          	endbr32 
    22f4:	ff a3 40 00 00 00    	jmp    *0x40(%ebx)
    22fa:	66 0f 1f 44 00 00    	nopw   0x0(%eax,%eax,1)

00002300 <__libc_start_main@plt>:
    2300:	f3 0f 1e fb          	endbr32 
    2304:	ff a3 44 00 00 00    	jmp    *0x44(%ebx)
    230a:	66 0f 1f 44 00 00    	nopw   0x0(%eax,%eax,1)

00002310 <write@plt>:
    2310:	f3 0f 1e fb          	endbr32 
    2314:	ff a3 48 00 00 00    	jmp    *0x48(%ebx)
    231a:	66 0f 1f 44 00 00    	nopw   0x0(%eax,%eax,1)

00002320 <strcasecmp@plt>:
    2320:	f3 0f 1e fb          	endbr32 
    2324:	ff a3 4c 00 00 00    	jmp    *0x4c(%ebx)
    232a:	66 0f 1f 44 00 00    	nopw   0x0(%eax,%eax,1)

00002330 <__isoc99_sscanf@plt>:
    2330:	f3 0f 1e fb          	endbr32 
    2334:	ff a3 50 00 00 00    	jmp    *0x50(%ebx)
    233a:	66 0f 1f 44 00 00    	nopw   0x0(%eax,%eax,1)

00002340 <fopen@plt>:
    2340:	f3 0f 1e fb          	endbr32 
    2344:	ff a3 54 00 00 00    	jmp    *0x54(%ebx)
    234a:	66 0f 1f 44 00 00    	nopw   0x0(%eax,%eax,1)

00002350 <__errno_location@plt>:
    2350:	f3 0f 1e fb          	endbr32 
    2354:	ff a3 58 00 00 00    	jmp    *0x58(%ebx)
    235a:	66 0f 1f 44 00 00    	nopw   0x0(%eax,%eax,1)

00002360 <__printf_chk@plt>:
    2360:	f3 0f 1e fb          	endbr32 
    2364:	ff a3 5c 00 00 00    	jmp    *0x5c(%ebx)
    236a:	66 0f 1f 44 00 00    	nopw   0x0(%eax,%eax,1)

00002370 <socket@plt>:
    2370:	f3 0f 1e fb          	endbr32 
    2374:	ff a3 60 00 00 00    	jmp    *0x60(%ebx)
    237a:	66 0f 1f 44 00 00    	nopw   0x0(%eax,%eax,1)

00002380 <__fprintf_chk@plt>:
    2380:	f3 0f 1e fb          	endbr32 
    2384:	ff a3 64 00 00 00    	jmp    *0x64(%ebx)
    238a:	66 0f 1f 44 00 00    	nopw   0x0(%eax,%eax,1)

00002390 <gethostbyname@plt>:
    2390:	f3 0f 1e fb          	endbr32 
    2394:	ff a3 68 00 00 00    	jmp    *0x68(%ebx)
    239a:	66 0f 1f 44 00 00    	nopw   0x0(%eax,%eax,1)

000023a0 <strtol@plt>:
    23a0:	f3 0f 1e fb          	endbr32 
    23a4:	ff a3 6c 00 00 00    	jmp    *0x6c(%ebx)
    23aa:	66 0f 1f 44 00 00    	nopw   0x0(%eax,%eax,1)

000023b0 <connect@plt>:
    23b0:	f3 0f 1e fb          	endbr32 
    23b4:	ff a3 70 00 00 00    	jmp    *0x70(%ebx)
    23ba:	66 0f 1f 44 00 00    	nopw   0x0(%eax,%eax,1)

000023c0 <close@plt>:
    23c0:	f3 0f 1e fb          	endbr32 
    23c4:	ff a3 74 00 00 00    	jmp    *0x74(%ebx)
    23ca:	66 0f 1f 44 00 00    	nopw   0x0(%eax,%eax,1)

000023d0 <__ctype_b_loc@plt>:
    23d0:	f3 0f 1e fb          	endbr32 
    23d4:	ff a3 78 00 00 00    	jmp    *0x78(%ebx)
    23da:	66 0f 1f 44 00 00    	nopw   0x0(%eax,%eax,1)

000023e0 <__sprintf_chk@plt>:
    23e0:	f3 0f 1e fb          	endbr32 
    23e4:	ff a3 7c 00 00 00    	jmp    *0x7c(%ebx)
    23ea:	66 0f 1f 44 00 00    	nopw   0x0(%eax,%eax,1)

Disassembly of section .text:

000023f0 <_start>:
    23f0:	f3 0f 1e fb          	endbr32 
    23f4:	31 ed                	xor    %ebp,%ebp
    23f6:	5e                   	pop    %esi
    23f7:	89 e1                	mov    %esp,%ecx
    23f9:	83 e4 f0             	and    $0xfffffff0,%esp
    23fc:	50                   	push   %eax
    23fd:	54                   	push   %esp
    23fe:	52                   	push   %edx
    23ff:	e8 22 00 00 00       	call   2426 <_start+0x36>
    2404:	81 c3 68 4b 00 00    	add    $0x4b68,%ebx
    240a:	8d 83 14 cd ff ff    	lea    -0x32ec(%ebx),%eax
    2410:	50                   	push   %eax
    2411:	8d 83 a4 cc ff ff    	lea    -0x335c(%ebx),%eax
    2417:	50                   	push   %eax
    2418:	51                   	push   %ecx
    2419:	56                   	push   %esi
    241a:	ff b3 8c 00 00 00    	pushl  0x8c(%ebx)
    2420:	e8 db fe ff ff       	call   2300 <__libc_start_main@plt>
    2425:	f4                   	hlt    
    2426:	8b 1c 24             	mov    (%esp),%ebx
    2429:	c3                   	ret    
    242a:	66 90                	xchg   %ax,%ax
    242c:	66 90                	xchg   %ax,%ax
    242e:	66 90                	xchg   %ax,%ax

00002430 <__x86.get_pc_thunk.bx>:
    2430:	8b 1c 24             	mov    (%esp),%ebx
    2433:	c3                   	ret    
    2434:	66 90                	xchg   %ax,%ax
    2436:	66 90                	xchg   %ax,%ax
    2438:	66 90                	xchg   %ax,%ax
    243a:	66 90                	xchg   %ax,%ax
    243c:	66 90                	xchg   %ax,%ax
    243e:	66 90                	xchg   %ax,%ax

00002440 <deregister_tm_clones>:
    2440:	e8 e4 00 00 00       	call   2529 <__x86.get_pc_thunk.dx>
    2445:	81 c2 27 4b 00 00    	add    $0x4b27,%edx
    244b:	8d 8a d4 07 00 00    	lea    0x7d4(%edx),%ecx
    2451:	8d 82 d4 07 00 00    	lea    0x7d4(%edx),%eax
    2457:	39 c8                	cmp    %ecx,%eax
    2459:	74 1d                	je     2478 <deregister_tm_clones+0x38>
    245b:	8b 82 80 00 00 00    	mov    0x80(%edx),%eax
    2461:	85 c0                	test   %eax,%eax
    2463:	74 13                	je     2478 <deregister_tm_clones+0x38>
    2465:	55                   	push   %ebp
    2466:	89 e5                	mov    %esp,%ebp
    2468:	83 ec 14             	sub    $0x14,%esp
    246b:	51                   	push   %ecx
    246c:	ff d0                	call   *%eax
    246e:	83 c4 10             	add    $0x10,%esp
    2471:	c9                   	leave  
    2472:	c3                   	ret    
    2473:	8d 74 26 00          	lea    0x0(%esi,%eiz,1),%esi
    2477:	90                   	nop
    2478:	c3                   	ret    
    2479:	8d b4 26 00 00 00 00 	lea    0x0(%esi,%eiz,1),%esi

00002480 <register_tm_clones>:
    2480:	e8 a4 00 00 00       	call   2529 <__x86.get_pc_thunk.dx>
    2485:	81 c2 e7 4a 00 00    	add    $0x4ae7,%edx
    248b:	55                   	push   %ebp
    248c:	89 e5                	mov    %esp,%ebp
    248e:	53                   	push   %ebx
    248f:	8d 8a d4 07 00 00    	lea    0x7d4(%edx),%ecx
    2495:	8d 82 d4 07 00 00    	lea    0x7d4(%edx),%eax
    249b:	83 ec 04             	sub    $0x4,%esp
    249e:	29 c8                	sub    %ecx,%eax
    24a0:	89 c3                	mov    %eax,%ebx
    24a2:	c1 e8 1f             	shr    $0x1f,%eax
    24a5:	c1 fb 02             	sar    $0x2,%ebx
    24a8:	01 d8                	add    %ebx,%eax
    24aa:	d1 f8                	sar    %eax
    24ac:	74 14                	je     24c2 <register_tm_clones+0x42>
    24ae:	8b 92 90 00 00 00    	mov    0x90(%edx),%edx
    24b4:	85 d2                	test   %edx,%edx
    24b6:	74 0a                	je     24c2 <register_tm_clones+0x42>
    24b8:	83 ec 08             	sub    $0x8,%esp
    24bb:	50                   	push   %eax
    24bc:	51                   	push   %ecx
    24bd:	ff d2                	call   *%edx
    24bf:	83 c4 10             	add    $0x10,%esp
    24c2:	8b 5d fc             	mov    -0x4(%ebp),%ebx
    24c5:	c9                   	leave  
    24c6:	c3                   	ret    
    24c7:	8d b4 26 00 00 00 00 	lea    0x0(%esi,%eiz,1),%esi
    24ce:	66 90                	xchg   %ax,%ax

000024d0 <__do_global_dtors_aux>:
    24d0:	f3 0f 1e fb          	endbr32 
    24d4:	55                   	push   %ebp
    24d5:	89 e5                	mov    %esp,%ebp
    24d7:	53                   	push   %ebx
    24d8:	e8 53 ff ff ff       	call   2430 <__x86.get_pc_thunk.bx>
    24dd:	81 c3 8f 4a 00 00    	add    $0x4a8f,%ebx
    24e3:	83 ec 04             	sub    $0x4,%esp
    24e6:	80 bb fc 07 00 00 00 	cmpb   $0x0,0x7fc(%ebx)
    24ed:	75 27                	jne    2516 <__do_global_dtors_aux+0x46>
    24ef:	8b 83 84 00 00 00    	mov    0x84(%ebx),%eax
    24f5:	85 c0                	test   %eax,%eax
    24f7:	74 11                	je     250a <__do_global_dtors_aux+0x3a>
    24f9:	83 ec 0c             	sub    $0xc,%esp
    24fc:	ff b3 98 00 00 00    	pushl  0x98(%ebx)
    2502:	e8 09 fd ff ff       	call   2210 <__cxa_finalize@plt>
    2507:	83 c4 10             	add    $0x10,%esp
    250a:	e8 31 ff ff ff       	call   2440 <deregister_tm_clones>
    250f:	c6 83 fc 07 00 00 01 	movb   $0x1,0x7fc(%ebx)
    2516:	8b 5d fc             	mov    -0x4(%ebp),%ebx
    2519:	c9                   	leave  
    251a:	c3                   	ret    
    251b:	8d 74 26 00          	lea    0x0(%esi,%eiz,1),%esi
    251f:	90                   	nop

00002520 <frame_dummy>:
    2520:	f3 0f 1e fb          	endbr32 
    2524:	e9 57 ff ff ff       	jmp    2480 <register_tm_clones>

00002529 <__x86.get_pc_thunk.dx>:
    2529:	8b 14 24             	mov    (%esp),%edx
    252c:	c3                   	ret    

0000252d <main>:
    252d:	f3 0f 1e fb          	endbr32 
    2531:	8d 4c 24 04          	lea    0x4(%esp),%ecx
    2535:	83 e4 f0             	and    $0xfffffff0,%esp
    2538:	ff 71 fc             	pushl  -0x4(%ecx)
    253b:	55                   	push   %ebp
    253c:	89 e5                	mov    %esp,%ebp
    253e:	53                   	push   %ebx
    253f:	51                   	push   %ecx
    2540:	8b 01                	mov    (%ecx),%eax
    2542:	8b 59 04             	mov    0x4(%ecx),%ebx
    2545:	83 f8 01             	cmp    $0x1,%eax
    2548:	0f 84 5b 01 00 00    	je     26a9 <main+0x17c>
    254e:	83 f8 02             	cmp    $0x2,%eax
    2551:	0f 85 7e 01 00 00    	jne    26d5 <main+0x1a8>
    2557:	83 ec 08             	sub    $0x8,%esp
    255a:	68 08 40 00 00       	push   $0x4008
    255f:	ff 73 04             	pushl  0x4(%ebx)
    2562:	e8 fc ff ff ff       	call   2563 <main+0x36>
    2567:	a3 70 77 00 00       	mov    %eax,0x7770
    256c:	83 c4 10             	add    $0x10,%esp
    256f:	85 c0                	test   %eax,%eax
    2571:	0f 84 41 01 00 00    	je     26b8 <main+0x18b>
    2577:	e8 32 07 00 00       	call   2cae <initialize_bomb>
    257c:	83 ec 0c             	sub    $0xc,%esp
    257f:	68 98 40 00 00       	push   $0x4098
    2584:	e8 fc ff ff ff       	call   2585 <main+0x58>
    2589:	c7 04 24 d4 40 00 00 	movl   $0x40d4,(%esp)
    2590:	e8 fc ff ff ff       	call   2591 <main+0x64>
    2595:	e8 e3 09 00 00       	call   2f7d <read_line>
    259a:	89 04 24             	mov    %eax,(%esp)
    259d:	e8 50 01 00 00       	call   26f2 <phase_1>
    25a2:	e8 d7 0a 00 00       	call   307e <phase_defused>
    25a7:	c7 04 24 00 41 00 00 	movl   $0x4100,(%esp)
    25ae:	e8 fc ff ff ff       	call   25af <main+0x82>
    25b3:	e8 c5 09 00 00       	call   2f7d <read_line>
    25b8:	89 04 24             	mov    %eax,(%esp)
    25bb:	e8 96 01 00 00       	call   2756 <phase_2>
    25c0:	e8 b9 0a 00 00       	call   307e <phase_defused>
    25c5:	c7 04 24 41 40 00 00 	movl   $0x4041,(%esp)
    25cc:	e8 fc ff ff ff       	call   25cd <main+0xa0>
    25d1:	e8 a7 09 00 00       	call   2f7d <read_line>
    25d6:	89 04 24             	mov    %eax,(%esp)
    25d9:	e8 9f 01 00 00       	call   277d <phase_3>
    25de:	e8 9b 0a 00 00       	call   307e <phase_defused>
    25e3:	c7 04 24 5f 40 00 00 	movl   $0x405f,(%esp)
    25ea:	e8 fc ff ff ff       	call   25eb <main+0xbe>
    25ef:	e8 89 09 00 00       	call   2f7d <read_line>
    25f4:	89 04 24             	mov    %eax,(%esp)
    25f7:	e8 d8 01 00 00       	call   27d4 <phase_4>
    25fc:	e8 7d 0a 00 00       	call   307e <phase_defused>
    2601:	c7 04 24 2c 41 00 00 	movl   $0x412c,(%esp)
    2608:	e8 fc ff ff ff       	call   2609 <main+0xdc>
    260d:	e8 6b 09 00 00       	call   2f7d <read_line>
    2612:	89 04 24             	mov    %eax,(%esp)
    2615:	e8 4e 02 00 00       	call   2868 <phase_5>
    261a:	e8 5f 0a 00 00       	call   307e <phase_defused>
    261f:	c7 04 24 70 40 00 00 	movl   $0x4070,(%esp)
    2626:	e8 fc ff ff ff       	call   2627 <main+0xfa>
    262b:	e8 4d 09 00 00       	call   2f7d <read_line>
    2630:	89 04 24             	mov    %eax,(%esp)
    2633:	e8 fa 02 00 00       	call   2932 <phase_6>
    2638:	e8 41 0a 00 00       	call   307e <phase_defused>
    263d:	c7 04 24 50 41 00 00 	movl   $0x4150,(%esp)
    2644:	e8 fc ff ff ff       	call   2645 <main+0x118>
    2649:	e8 2f 09 00 00       	call   2f7d <read_line>
    264e:	89 04 24             	mov    %eax,(%esp)
    2651:	e8 54 03 00 00       	call   29aa <phase_7>
    2656:	e8 23 0a 00 00       	call   307e <phase_defused>
    265b:	c7 04 24 70 41 00 00 	movl   $0x4170,(%esp)
    2662:	e8 fc ff ff ff       	call   2663 <main+0x136>
    2667:	e8 11 09 00 00       	call   2f7d <read_line>
    266c:	89 04 24             	mov    %eax,(%esp)
    266f:	e8 86 03 00 00       	call   29fa <phase_8>
    2674:	e8 05 0a 00 00       	call   307e <phase_defused>
    2679:	c7 04 24 8e 40 00 00 	movl   $0x408e,(%esp)
    2680:	e8 fc ff ff ff       	call   2681 <main+0x154>
    2685:	e8 f3 08 00 00       	call   2f7d <read_line>
    268a:	89 04 24             	mov    %eax,(%esp)
    268d:	e8 cc 04 00 00       	call   2b5e <phase_9>
    2692:	e8 e7 09 00 00       	call   307e <phase_defused>
    2697:	83 c4 10             	add    $0x10,%esp
    269a:	b8 00 00 00 00       	mov    $0x0,%eax
    269f:	8d 65 f8             	lea    -0x8(%ebp),%esp
    26a2:	59                   	pop    %ecx
    26a3:	5b                   	pop    %ebx
    26a4:	5d                   	pop    %ebp
    26a5:	8d 61 fc             	lea    -0x4(%ecx),%esp
    26a8:	c3                   	ret    
    26a9:	a1 00 00 00 00       	mov    0x0,%eax
    26ae:	a3 70 77 00 00       	mov    %eax,0x7770
    26b3:	e9 bf fe ff ff       	jmp    2577 <main+0x4a>
    26b8:	ff 73 04             	pushl  0x4(%ebx)
    26bb:	ff 33                	pushl  (%ebx)
    26bd:	68 0a 40 00 00       	push   $0x400a
    26c2:	6a 01                	push   $0x1
    26c4:	e8 fc ff ff ff       	call   26c5 <main+0x198>
    26c9:	c7 04 24 08 00 00 00 	movl   $0x8,(%esp)
    26d0:	e8 fc ff ff ff       	call   26d1 <main+0x1a4>
    26d5:	83 ec 04             	sub    $0x4,%esp
    26d8:	ff 33                	pushl  (%ebx)
    26da:	68 27 40 00 00       	push   $0x4027
    26df:	6a 01                	push   $0x1
    26e1:	e8 fc ff ff ff       	call   26e2 <main+0x1b5>
    26e6:	c7 04 24 08 00 00 00 	movl   $0x8,(%esp)
    26ed:	e8 fc ff ff ff       	call   26ee <main+0x1c1>

000026f2 <phase_1>:
    26f2:	f3 0f 1e fb          	endbr32 
    26f6:	83 ec 20             	sub    $0x20,%esp
    26f9:	65 a1 14 00 00 00    	mov    %gs:0x14,%eax
    26ff:	89 44 24 10          	mov    %eax,0x10(%esp)
    2703:	31 c0                	xor    %eax,%eax
    2705:	c7 44 24 0c 00 00 00 	movl   $0x0,0xc(%esp)
    270c:	00 
    270d:	8d 44 24 0c          	lea    0xc(%esp),%eax
    2711:	50                   	push   %eax
    2712:	68 80 44 00 00       	push   $0x4480
    2717:	ff 74 24 2c          	pushl  0x2c(%esp)
    271b:	e8 fc ff ff ff       	call   271c <phase_1+0x2a>
    2720:	83 c4 10             	add    $0x10,%esp
    2723:	83 f8 01             	cmp    $0x1,%eax
    2726:	75 1b                	jne    2743 <phase_1+0x51>
    2728:	81 7c 24 08 9a 01 00 	cmpl   $0x19a,0x8(%esp)
    272f:	00 
    2730:	75 18                	jne    274a <phase_1+0x58>
    2732:	8b 44 24 0c          	mov    0xc(%esp),%eax
    2736:	65 33 05 14 00 00 00 	xor    %gs:0x14,%eax
    273d:	75 12                	jne    2751 <phase_1+0x5f>
    273f:	83 c4 1c             	add    $0x1c,%esp
    2742:	c3                   	ret    
    2743:	e8 b3 07 00 00       	call   2efb <explode_bomb>
    2748:	eb de                	jmp    2728 <phase_1+0x36>
    274a:	e8 ac 07 00 00       	call   2efb <explode_bomb>
    274f:	eb e1                	jmp    2732 <phase_1+0x40>
    2751:	e8 fc ff ff ff       	call   2752 <phase_1+0x60>

00002756 <phase_2>:
    2756:	f3 0f 1e fb          	endbr32 
    275a:	83 ec 14             	sub    $0x14,%esp
    275d:	68 90 41 00 00       	push   $0x4190
    2762:	ff 74 24 1c          	pushl  0x1c(%esp)
    2766:	e8 e7 04 00 00       	call   2c52 <strings_not_equal>
    276b:	83 c4 10             	add    $0x10,%esp
    276e:	85 c0                	test   %eax,%eax
    2770:	75 04                	jne    2776 <phase_2+0x20>
    2772:	83 c4 0c             	add    $0xc,%esp
    2775:	c3                   	ret    
    2776:	e8 80 07 00 00       	call   2efb <explode_bomb>
    277b:	eb f5                	jmp    2772 <phase_2+0x1c>

0000277d <phase_3>:
    277d:	f3 0f 1e fb          	endbr32 
    2781:	57                   	push   %edi
    2782:	56                   	push   %esi
    2783:	83 ec 10             	sub    $0x10,%esp
    2786:	68 d4 41 00 00       	push   $0x41d4
    278b:	e8 a0 04 00 00       	call   2c30 <string_length>
    2790:	83 c0 01             	add    $0x1,%eax
    2793:	89 04 24             	mov    %eax,(%esp)
    2796:	e8 fc ff ff ff       	call   2797 <phase_3+0x1a>
    279b:	be d4 41 00 00       	mov    $0x41d4,%esi
    27a0:	b9 13 00 00 00       	mov    $0x13,%ecx
    27a5:	89 c7                	mov    %eax,%edi
    27a7:	f3 a5                	rep movsl %ds:(%esi),%es:(%edi)
    27a9:	0f b7 16             	movzwl (%esi),%edx
    27ac:	66 89 17             	mov    %dx,(%edi)
    27af:	c6 40 4c 6d          	movb   $0x6d,0x4c(%eax)
    27b3:	83 c4 08             	add    $0x8,%esp
    27b6:	50                   	push   %eax
    27b7:	ff 74 24 1c          	pushl  0x1c(%esp)
    27bb:	e8 92 04 00 00       	call   2c52 <strings_not_equal>
    27c0:	83 c4 10             	add    $0x10,%esp
    27c3:	85 c0                	test   %eax,%eax
    27c5:	75 06                	jne    27cd <phase_3+0x50>
    27c7:	83 c4 04             	add    $0x4,%esp
    27ca:	5e                   	pop    %esi
    27cb:	5f                   	pop    %edi
    27cc:	c3                   	ret    
    27cd:	e8 29 07 00 00       	call   2efb <explode_bomb>
    27d2:	eb f3                	jmp    27c7 <phase_3+0x4a>

000027d4 <phase_4>:
    27d4:	f3 0f 1e fb          	endbr32 
    27d8:	57                   	push   %edi
    27d9:	56                   	push   %esi
    27da:	53                   	push   %ebx
    27db:	8b 7c 24 10          	mov    0x10(%esp),%edi
    27df:	83 ec 0c             	sub    $0xc,%esp
    27e2:	57                   	push   %edi
    27e3:	e8 48 04 00 00       	call   2c30 <string_length>
    27e8:	83 c0 01             	add    $0x1,%eax
    27eb:	89 04 24             	mov    %eax,(%esp)
    27ee:	e8 fc ff ff ff       	call   27ef <phase_4+0x1b>
    27f3:	89 c6                	mov    %eax,%esi
    27f5:	83 c4 10             	add    $0x10,%esp
    27f8:	f6 07 df             	testb  $0xdf,(%edi)
    27fb:	74 5b                	je     2858 <phase_4+0x84>
    27fd:	89 fb                	mov    %edi,%ebx
    27ff:	83 c3 01             	add    $0x1,%ebx
    2802:	f6 03 df             	testb  $0xdf,(%ebx)
    2805:	75 f8                	jne    27ff <phase_4+0x2b>
    2807:	39 df                	cmp    %ebx,%edi
    2809:	74 4f                	je     285a <phase_4+0x86>
    280b:	89 f2                	mov    %esi,%edx
    280d:	89 d8                	mov    %ebx,%eax
    280f:	83 e8 01             	sub    $0x1,%eax
    2812:	0f b6 08             	movzbl (%eax),%ecx
    2815:	88 0a                	mov    %cl,(%edx)
    2817:	83 c2 01             	add    $0x1,%edx
    281a:	39 c7                	cmp    %eax,%edi
    281c:	75 f1                	jne    280f <phase_4+0x3b>
    281e:	89 df                	mov    %ebx,%edi
    2820:	29 c7                	sub    %eax,%edi
    2822:	89 f8                	mov    %edi,%eax
    2824:	01 f0                	add    %esi,%eax
    2826:	0f b6 13             	movzbl (%ebx),%edx
    2829:	84 d2                	test   %dl,%dl
    282b:	74 0f                	je     283c <phase_4+0x68>
    282d:	88 10                	mov    %dl,(%eax)
    282f:	83 c0 01             	add    $0x1,%eax
    2832:	83 c3 01             	add    $0x1,%ebx
    2835:	0f b6 13             	movzbl (%ebx),%edx
    2838:	84 d2                	test   %dl,%dl
    283a:	75 f1                	jne    282d <phase_4+0x59>
    283c:	c6 00 00             	movb   $0x0,(%eax)
    283f:	83 ec 08             	sub    $0x8,%esp
    2842:	56                   	push   %esi
    2843:	68 24 42 00 00       	push   $0x4224
    2848:	e8 05 04 00 00       	call   2c52 <strings_not_equal>
    284d:	83 c4 10             	add    $0x10,%esp
    2850:	85 c0                	test   %eax,%eax
    2852:	75 0d                	jne    2861 <phase_4+0x8d>
    2854:	5b                   	pop    %ebx
    2855:	5e                   	pop    %esi
    2856:	5f                   	pop    %edi
    2857:	c3                   	ret    
    2858:	89 fb                	mov    %edi,%ebx
    285a:	e8 9c 06 00 00       	call   2efb <explode_bomb>
    285f:	eb aa                	jmp    280b <phase_4+0x37>
    2861:	e8 95 06 00 00       	call   2efb <explode_bomb>
    2866:	eb ec                	jmp    2854 <phase_4+0x80>

00002868 <phase_5>:
    2868:	f3 0f 1e fb          	endbr32 
    286c:	56                   	push   %esi
    286d:	53                   	push   %ebx
    286e:	83 ec 18             	sub    $0x18,%esp
    2871:	65 a1 14 00 00 00    	mov    %gs:0x14,%eax
    2877:	89 44 24 10          	mov    %eax,0x10(%esp)
    287b:	31 c0                	xor    %eax,%eax
    287d:	8d 44 24 0c          	lea    0xc(%esp),%eax
    2881:	50                   	push   %eax
    2882:	68 80 44 00 00       	push   $0x4480
    2887:	ff 74 24 2c          	pushl  0x2c(%esp)
    288b:	e8 fc ff ff ff       	call   288c <phase_5+0x24>
    2890:	83 c4 10             	add    $0x10,%esp
    2893:	83 f8 01             	cmp    $0x1,%eax
    2896:	75 19                	jne    28b1 <phase_5+0x49>
    2898:	8b 74 24 08          	mov    0x8(%esp),%esi
    289c:	85 f6                	test   %esi,%esi
    289e:	7e 41                	jle    28e1 <phase_5+0x79>
    28a0:	b8 00 00 00 00       	mov    $0x0,%eax
    28a5:	b9 00 00 00 00       	mov    $0x0,%ecx
    28aa:	ba 01 00 00 00       	mov    $0x1,%edx
    28af:	eb 09                	jmp    28ba <phase_5+0x52>
    28b1:	e8 45 06 00 00       	call   2efb <explode_bomb>
    28b6:	eb e0                	jmp    2898 <phase_5+0x30>
    28b8:	89 da                	mov    %ebx,%edx
    28ba:	8d 1c 0a             	lea    (%edx,%ecx,1),%ebx
    28bd:	83 c0 01             	add    $0x1,%eax
    28c0:	89 d1                	mov    %edx,%ecx
    28c2:	39 f0                	cmp    %esi,%eax
    28c4:	75 f2                	jne    28b8 <phase_5+0x50>
    28c6:	81 fb e9 00 00 00    	cmp    $0xe9,%ebx
    28cc:	75 13                	jne    28e1 <phase_5+0x79>
    28ce:	8b 44 24 0c          	mov    0xc(%esp),%eax
    28d2:	65 33 05 14 00 00 00 	xor    %gs:0x14,%eax
    28d9:	75 0d                	jne    28e8 <phase_5+0x80>
    28db:	83 c4 14             	add    $0x14,%esp
    28de:	5b                   	pop    %ebx
    28df:	5e                   	pop    %esi
    28e0:	c3                   	ret    
    28e1:	e8 15 06 00 00       	call   2efb <explode_bomb>
    28e6:	eb e6                	jmp    28ce <phase_5+0x66>
    28e8:	e8 fc ff ff ff       	call   28e9 <phase_5+0x81>

000028ed <func6>:
    28ed:	f3 0f 1e fb          	endbr32 
    28f1:	57                   	push   %edi
    28f2:	56                   	push   %esi
    28f3:	53                   	push   %ebx
    28f4:	8b 5c 24 10          	mov    0x10(%esp),%ebx
    28f8:	8b 7c 24 14          	mov    0x14(%esp),%edi
    28fc:	b8 00 00 00 00       	mov    $0x0,%eax
    2901:	85 db                	test   %ebx,%ebx
    2903:	7e 29                	jle    292e <func6+0x41>
    2905:	89 f8                	mov    %edi,%eax
    2907:	83 fb 01             	cmp    $0x1,%ebx
    290a:	74 22                	je     292e <func6+0x41>
    290c:	83 ec 08             	sub    $0x8,%esp
    290f:	57                   	push   %edi
    2910:	8d 43 ff             	lea    -0x1(%ebx),%eax
    2913:	50                   	push   %eax
    2914:	e8 d4 ff ff ff       	call   28ed <func6>
    2919:	83 c4 08             	add    $0x8,%esp
    291c:	8d 34 38             	lea    (%eax,%edi,1),%esi
    291f:	57                   	push   %edi
    2920:	83 eb 02             	sub    $0x2,%ebx
    2923:	53                   	push   %ebx
    2924:	e8 c4 ff ff ff       	call   28ed <func6>
    2929:	83 c4 10             	add    $0x10,%esp
    292c:	01 f0                	add    %esi,%eax
    292e:	5b                   	pop    %ebx
    292f:	5e                   	pop    %esi
    2930:	5f                   	pop    %edi
    2931:	c3                   	ret    

00002932 <phase_6>:
    2932:	f3 0f 1e fb          	endbr32 
    2936:	83 ec 1c             	sub    $0x1c,%esp
    2939:	65 a1 14 00 00 00    	mov    %gs:0x14,%eax
    293f:	89 44 24 0c          	mov    %eax,0xc(%esp)
    2943:	31 c0                	xor    %eax,%eax
    2945:	8d 44 24 04          	lea    0x4(%esp),%eax
    2949:	50                   	push   %eax
    294a:	8d 44 24 0c          	lea    0xc(%esp),%eax
    294e:	50                   	push   %eax
    294f:	68 7d 44 00 00       	push   $0x447d
    2954:	ff 74 24 2c          	pushl  0x2c(%esp)
    2958:	e8 fc ff ff ff       	call   2959 <phase_6+0x27>
    295d:	83 c4 10             	add    $0x10,%esp
    2960:	83 f8 02             	cmp    $0x2,%eax
    2963:	75 0c                	jne    2971 <phase_6+0x3f>
    2965:	8b 44 24 04          	mov    0x4(%esp),%eax
    2969:	83 e8 02             	sub    $0x2,%eax
    296c:	83 f8 02             	cmp    $0x2,%eax
    296f:	76 05                	jbe    2976 <phase_6+0x44>
    2971:	e8 85 05 00 00       	call   2efb <explode_bomb>
    2976:	83 ec 08             	sub    $0x8,%esp
    2979:	ff 74 24 0c          	pushl  0xc(%esp)
    297d:	6a 06                	push   $0x6
    297f:	e8 69 ff ff ff       	call   28ed <func6>
    2984:	83 c4 10             	add    $0x10,%esp
    2987:	39 44 24 08          	cmp    %eax,0x8(%esp)
    298b:	75 11                	jne    299e <phase_6+0x6c>
    298d:	8b 44 24 0c          	mov    0xc(%esp),%eax
    2991:	65 33 05 14 00 00 00 	xor    %gs:0x14,%eax
    2998:	75 0b                	jne    29a5 <phase_6+0x73>
    299a:	83 c4 1c             	add    $0x1c,%esp
    299d:	c3                   	ret    
    299e:	e8 58 05 00 00       	call   2efb <explode_bomb>
    29a3:	eb e8                	jmp    298d <phase_6+0x5b>
    29a5:	e8 fc ff ff ff       	call   29a6 <phase_6+0x74>

000029aa <phase_7>:
    29aa:	f3 0f 1e fb          	endbr32 
    29ae:	53                   	push   %ebx
    29af:	83 ec 14             	sub    $0x14,%esp
    29b2:	8b 5c 24 1c          	mov    0x1c(%esp),%ebx
    29b6:	53                   	push   %ebx
    29b7:	e8 74 02 00 00       	call   2c30 <string_length>
    29bc:	83 c4 10             	add    $0x10,%esp
    29bf:	83 f8 06             	cmp    $0x6,%eax
    29c2:	75 28                	jne    29ec <phase_7+0x42>
    29c4:	89 d8                	mov    %ebx,%eax
    29c6:	83 c3 06             	add    $0x6,%ebx
    29c9:	b9 00 00 00 00       	mov    $0x0,%ecx
    29ce:	0f b6 10             	movzbl (%eax),%edx
    29d1:	83 e2 0f             	and    $0xf,%edx
    29d4:	03 0c 95 80 42 00 00 	add    0x4280(,%edx,4),%ecx
    29db:	83 c0 01             	add    $0x1,%eax
    29de:	39 d8                	cmp    %ebx,%eax
    29e0:	75 ec                	jne    29ce <phase_7+0x24>
    29e2:	83 f9 31             	cmp    $0x31,%ecx
    29e5:	75 0c                	jne    29f3 <phase_7+0x49>
    29e7:	83 c4 08             	add    $0x8,%esp
    29ea:	5b                   	pop    %ebx
    29eb:	c3                   	ret    
    29ec:	e8 0a 05 00 00       	call   2efb <explode_bomb>
    29f1:	eb d1                	jmp    29c4 <phase_7+0x1a>
    29f3:	e8 03 05 00 00       	call   2efb <explode_bomb>
    29f8:	eb ed                	jmp    29e7 <phase_7+0x3d>

000029fa <phase_8>:
    29fa:	f3 0f 1e fb          	endbr32 
    29fe:	55                   	push   %ebp
    29ff:	57                   	push   %edi
    2a00:	56                   	push   %esi
    2a01:	53                   	push   %ebx
    2a02:	83 ec 64             	sub    $0x64,%esp
    2a05:	65 a1 14 00 00 00    	mov    %gs:0x14,%eax
    2a0b:	89 44 24 54          	mov    %eax,0x54(%esp)
    2a0f:	31 c0                	xor    %eax,%eax
    2a11:	8d 44 24 24          	lea    0x24(%esp),%eax
    2a15:	50                   	push   %eax
    2a16:	ff 74 24 7c          	pushl  0x7c(%esp)
    2a1a:	e8 1f 05 00 00       	call   2f3e <read_six_numbers>
    2a1f:	8d 6c 24 30          	lea    0x30(%esp),%ebp
    2a23:	83 c4 10             	add    $0x10,%esp
    2a26:	c7 44 24 0c 00 00 00 	movl   $0x0,0xc(%esp)
    2a2d:	00 
    2a2e:	8d 7c 24 34          	lea    0x34(%esp),%edi
    2a32:	eb 1f                	jmp    2a53 <phase_8+0x59>
    2a34:	e8 c2 04 00 00       	call   2efb <explode_bomb>
    2a39:	eb 25                	jmp    2a60 <phase_8+0x66>
    2a3b:	83 c3 04             	add    $0x4,%ebx
    2a3e:	39 df                	cmp    %ebx,%edi
    2a40:	74 0e                	je     2a50 <phase_8+0x56>
    2a42:	8b 03                	mov    (%ebx),%eax
    2a44:	39 46 fc             	cmp    %eax,-0x4(%esi)
    2a47:	75 f2                	jne    2a3b <phase_8+0x41>
    2a49:	e8 ad 04 00 00       	call   2efb <explode_bomb>
    2a4e:	eb eb                	jmp    2a3b <phase_8+0x41>
    2a50:	83 c5 04             	add    $0x4,%ebp
    2a53:	89 ee                	mov    %ebp,%esi
    2a55:	8b 45 fc             	mov    -0x4(%ebp),%eax
    2a58:	83 e8 01             	sub    $0x1,%eax
    2a5b:	83 f8 05             	cmp    $0x5,%eax
    2a5e:	77 d4                	ja     2a34 <phase_8+0x3a>
    2a60:	83 44 24 0c 01       	addl   $0x1,0xc(%esp)
    2a65:	8b 44 24 0c          	mov    0xc(%esp),%eax
    2a69:	83 f8 05             	cmp    $0x5,%eax
    2a6c:	7f 04                	jg     2a72 <phase_8+0x78>
    2a6e:	89 eb                	mov    %ebp,%ebx
    2a70:	eb d0                	jmp    2a42 <phase_8+0x48>
    2a72:	bb 00 00 00 00       	mov    $0x0,%ebx
    2a77:	89 de                	mov    %ebx,%esi
    2a79:	8b 4c 9c 1c          	mov    0x1c(%esp,%ebx,4),%ecx
    2a7d:	b8 01 00 00 00       	mov    $0x1,%eax
    2a82:	ba d4 70 00 00       	mov    $0x70d4,%edx
    2a87:	83 f9 01             	cmp    $0x1,%ecx
    2a8a:	7e 0a                	jle    2a96 <phase_8+0x9c>
    2a8c:	8b 52 08             	mov    0x8(%edx),%edx
    2a8f:	83 c0 01             	add    $0x1,%eax
    2a92:	39 c8                	cmp    %ecx,%eax
    2a94:	75 f6                	jne    2a8c <phase_8+0x92>
    2a96:	89 54 b4 34          	mov    %edx,0x34(%esp,%esi,4)
    2a9a:	83 c3 01             	add    $0x1,%ebx
    2a9d:	83 fb 06             	cmp    $0x6,%ebx
    2aa0:	75 d5                	jne    2a77 <phase_8+0x7d>
    2aa2:	8b 5c 24 34          	mov    0x34(%esp),%ebx
    2aa6:	8b 44 24 38          	mov    0x38(%esp),%eax
    2aaa:	89 43 08             	mov    %eax,0x8(%ebx)
    2aad:	8b 54 24 3c          	mov    0x3c(%esp),%edx
    2ab1:	89 50 08             	mov    %edx,0x8(%eax)
    2ab4:	8b 44 24 40          	mov    0x40(%esp),%eax
    2ab8:	89 42 08             	mov    %eax,0x8(%edx)
    2abb:	8b 54 24 44          	mov    0x44(%esp),%edx
    2abf:	89 50 08             	mov    %edx,0x8(%eax)
    2ac2:	8b 44 24 48          	mov    0x48(%esp),%eax
    2ac6:	89 42 08             	mov    %eax,0x8(%edx)
    2ac9:	c7 40 08 00 00 00 00 	movl   $0x0,0x8(%eax)
    2ad0:	be 05 00 00 00       	mov    $0x5,%esi
    2ad5:	eb 08                	jmp    2adf <phase_8+0xe5>
    2ad7:	8b 5b 08             	mov    0x8(%ebx),%ebx
    2ada:	83 ee 01             	sub    $0x1,%esi
    2add:	74 10                	je     2aef <phase_8+0xf5>
    2adf:	8b 43 08             	mov    0x8(%ebx),%eax
    2ae2:	8b 00                	mov    (%eax),%eax
    2ae4:	39 03                	cmp    %eax,(%ebx)
    2ae6:	7e ef                	jle    2ad7 <phase_8+0xdd>
    2ae8:	e8 0e 04 00 00       	call   2efb <explode_bomb>
    2aed:	eb e8                	jmp    2ad7 <phase_8+0xdd>
    2aef:	8b 44 24 4c          	mov    0x4c(%esp),%eax
    2af3:	65 33 05 14 00 00 00 	xor    %gs:0x14,%eax
    2afa:	75 08                	jne    2b04 <phase_8+0x10a>
    2afc:	83 c4 5c             	add    $0x5c,%esp
    2aff:	5b                   	pop    %ebx
    2b00:	5e                   	pop    %esi
    2b01:	5f                   	pop    %edi
    2b02:	5d                   	pop    %ebp
    2b03:	c3                   	ret    
    2b04:	e8 fc ff ff ff       	call   2b05 <phase_8+0x10b>

00002b09 <fun9>:
    2b09:	f3 0f 1e fb          	endbr32 
    2b0d:	53                   	push   %ebx
    2b0e:	83 ec 08             	sub    $0x8,%esp
    2b11:	8b 54 24 10          	mov    0x10(%esp),%edx
    2b15:	8b 4c 24 14          	mov    0x14(%esp),%ecx
    2b19:	85 d2                	test   %edx,%edx
    2b1b:	74 3a                	je     2b57 <fun9+0x4e>
    2b1d:	8b 1a                	mov    (%edx),%ebx
    2b1f:	39 cb                	cmp    %ecx,%ebx
    2b21:	7f 0c                	jg     2b2f <fun9+0x26>
    2b23:	b8 00 00 00 00       	mov    $0x0,%eax
    2b28:	75 18                	jne    2b42 <fun9+0x39>
    2b2a:	83 c4 08             	add    $0x8,%esp
    2b2d:	5b                   	pop    %ebx
    2b2e:	c3                   	ret    
    2b2f:	83 ec 08             	sub    $0x8,%esp
    2b32:	51                   	push   %ecx
    2b33:	ff 72 04             	pushl  0x4(%edx)
    2b36:	e8 ce ff ff ff       	call   2b09 <fun9>
    2b3b:	83 c4 10             	add    $0x10,%esp
    2b3e:	01 c0                	add    %eax,%eax
    2b40:	eb e8                	jmp    2b2a <fun9+0x21>
    2b42:	83 ec 08             	sub    $0x8,%esp
    2b45:	51                   	push   %ecx
    2b46:	ff 72 08             	pushl  0x8(%edx)
    2b49:	e8 bb ff ff ff       	call   2b09 <fun9>
    2b4e:	83 c4 10             	add    $0x10,%esp
    2b51:	8d 44 00 01          	lea    0x1(%eax,%eax,1),%eax
    2b55:	eb d3                	jmp    2b2a <fun9+0x21>
    2b57:	b8 ff ff ff ff       	mov    $0xffffffff,%eax
    2b5c:	eb cc                	jmp    2b2a <fun9+0x21>

00002b5e <phase_9>:
    2b5e:	f3 0f 1e fb          	endbr32 
    2b62:	53                   	push   %ebx
    2b63:	83 ec 0c             	sub    $0xc,%esp
    2b66:	6a 0a                	push   $0xa
    2b68:	6a 00                	push   $0x0
    2b6a:	ff 74 24 1c          	pushl  0x1c(%esp)
    2b6e:	e8 fc ff ff ff       	call   2b6f <phase_9+0x11>
    2b73:	89 c3                	mov    %eax,%ebx
    2b75:	8d 40 ff             	lea    -0x1(%eax),%eax
    2b78:	83 c4 10             	add    $0x10,%esp
    2b7b:	3d e8 03 00 00       	cmp    $0x3e8,%eax
    2b80:	77 1b                	ja     2b9d <phase_9+0x3f>
    2b82:	83 ec 08             	sub    $0x8,%esp
    2b85:	53                   	push   %ebx
    2b86:	68 20 70 00 00       	push   $0x7020
    2b8b:	e8 79 ff ff ff       	call   2b09 <fun9>
    2b90:	83 c4 10             	add    $0x10,%esp
    2b93:	83 f8 03             	cmp    $0x3,%eax
    2b96:	75 0c                	jne    2ba4 <phase_9+0x46>
    2b98:	83 c4 08             	add    $0x8,%esp
    2b9b:	5b                   	pop    %ebx
    2b9c:	c3                   	ret    
    2b9d:	e8 59 03 00 00       	call   2efb <explode_bomb>
    2ba2:	eb de                	jmp    2b82 <phase_9+0x24>
    2ba4:	e8 52 03 00 00       	call   2efb <explode_bomb>
    2ba9:	eb ed                	jmp    2b98 <phase_9+0x3a>

00002bab <sig_handler>:
    2bab:	f3 0f 1e fb          	endbr32 
    2baf:	56                   	push   %esi
    2bb0:	5e                   	pop    %esi
    2bb1:	83 ec 18             	sub    $0x18,%esp
    2bb4:	68 c0 42 00 00       	push   $0x42c0
    2bb9:	e8 fc ff ff ff       	call   2bba <sig_handler+0xf>
    2bbe:	c7 04 24 03 00 00 00 	movl   $0x3,(%esp)
    2bc5:	e8 fc ff ff ff       	call   2bc6 <sig_handler+0x1b>
    2bca:	83 c4 08             	add    $0x8,%esp
    2bcd:	68 f9 43 00 00       	push   $0x43f9
    2bd2:	6a 01                	push   $0x1
    2bd4:	e8 fc ff ff ff       	call   2bd5 <sig_handler+0x2a>
    2bd9:	83 c4 04             	add    $0x4,%esp
    2bdc:	ff 35 00 00 00 00    	pushl  0x0
    2be2:	e8 fc ff ff ff       	call   2be3 <sig_handler+0x38>
    2be7:	c7 04 24 01 00 00 00 	movl   $0x1,(%esp)
    2bee:	e8 fc ff ff ff       	call   2bef <sig_handler+0x44>
    2bf3:	c7 04 24 01 44 00 00 	movl   $0x4401,(%esp)
    2bfa:	e8 fc ff ff ff       	call   2bfb <sig_handler+0x50>
    2bff:	c7 04 24 10 00 00 00 	movl   $0x10,(%esp)
    2c06:	e8 fc ff ff ff       	call   2c07 <sig_handler+0x5c>

00002c0b <invalid_phase>:
    2c0b:	f3 0f 1e fb          	endbr32 
    2c0f:	56                   	push   %esi
    2c10:	5e                   	pop    %esi
    2c11:	83 ec 10             	sub    $0x10,%esp
    2c14:	ff 74 24 14          	pushl  0x14(%esp)
    2c18:	68 09 44 00 00       	push   $0x4409
    2c1d:	6a 01                	push   $0x1
    2c1f:	e8 fc ff ff ff       	call   2c20 <invalid_phase+0x15>
    2c24:	c7 04 24 08 00 00 00 	movl   $0x8,(%esp)
    2c2b:	e8 fc ff ff ff       	call   2c2c <invalid_phase+0x21>

00002c30 <string_length>:
    2c30:	f3 0f 1e fb          	endbr32 
    2c34:	8b 54 24 04          	mov    0x4(%esp),%edx
    2c38:	80 3a 00             	cmpb   $0x0,(%edx)
    2c3b:	74 0f                	je     2c4c <string_length+0x1c>
    2c3d:	b8 00 00 00 00       	mov    $0x0,%eax
    2c42:	83 c0 01             	add    $0x1,%eax
    2c45:	80 3c 02 00          	cmpb   $0x0,(%edx,%eax,1)
    2c49:	75 f7                	jne    2c42 <string_length+0x12>
    2c4b:	c3                   	ret    
    2c4c:	b8 00 00 00 00       	mov    $0x0,%eax
    2c51:	c3                   	ret    

00002c52 <strings_not_equal>:
    2c52:	f3 0f 1e fb          	endbr32 
    2c56:	57                   	push   %edi
    2c57:	56                   	push   %esi
    2c58:	53                   	push   %ebx
    2c59:	8b 5c 24 10          	mov    0x10(%esp),%ebx
    2c5d:	8b 74 24 14          	mov    0x14(%esp),%esi
    2c61:	53                   	push   %ebx
    2c62:	e8 c9 ff ff ff       	call   2c30 <string_length>
    2c67:	89 c7                	mov    %eax,%edi
    2c69:	89 34 24             	mov    %esi,(%esp)
    2c6c:	e8 bf ff ff ff       	call   2c30 <string_length>
    2c71:	83 c4 04             	add    $0x4,%esp
    2c74:	89 c2                	mov    %eax,%edx
    2c76:	b8 01 00 00 00       	mov    $0x1,%eax
    2c7b:	39 d7                	cmp    %edx,%edi
    2c7d:	75 2b                	jne    2caa <strings_not_equal+0x58>
    2c7f:	0f b6 03             	movzbl (%ebx),%eax
    2c82:	84 c0                	test   %al,%al
    2c84:	74 18                	je     2c9e <strings_not_equal+0x4c>
    2c86:	38 06                	cmp    %al,(%esi)
    2c88:	75 1b                	jne    2ca5 <strings_not_equal+0x53>
    2c8a:	83 c3 01             	add    $0x1,%ebx
    2c8d:	83 c6 01             	add    $0x1,%esi
    2c90:	0f b6 03             	movzbl (%ebx),%eax
    2c93:	84 c0                	test   %al,%al
    2c95:	75 ef                	jne    2c86 <strings_not_equal+0x34>
    2c97:	b8 00 00 00 00       	mov    $0x0,%eax
    2c9c:	eb 0c                	jmp    2caa <strings_not_equal+0x58>
    2c9e:	b8 00 00 00 00       	mov    $0x0,%eax
    2ca3:	eb 05                	jmp    2caa <strings_not_equal+0x58>
    2ca5:	b8 01 00 00 00       	mov    $0x1,%eax
    2caa:	5b                   	pop    %ebx
    2cab:	5e                   	pop    %esi
    2cac:	5f                   	pop    %edi
    2cad:	c3                   	ret    

00002cae <initialize_bomb>:
    2cae:	f3 0f 1e fb          	endbr32 
    2cb2:	56                   	push   %esi
    2cb3:	53                   	push   %ebx
    2cb4:	81 ec 00 10 00 00    	sub    $0x1000,%esp
    2cba:	83 0c 24 00          	orl    $0x0,(%esp)
    2cbe:	81 ec 00 10 00 00    	sub    $0x1000,%esp
    2cc4:	83 0c 24 00          	orl    $0x0,(%esp)
    2cc8:	83 ec 5c             	sub    $0x5c,%esp
    2ccb:	65 a1 14 00 00 00    	mov    %gs:0x14,%eax
    2cd1:	89 84 24 54 20 00 00 	mov    %eax,0x2054(%esp)
    2cd8:	31 c0                	xor    %eax,%eax
    2cda:	68 ab 2b 00 00       	push   $0x2bab
    2cdf:	6a 02                	push   $0x2
    2ce1:	e8 fc ff ff ff       	call   2ce2 <initialize_bomb+0x34>
    2ce6:	83 c4 08             	add    $0x8,%esp
    2ce9:	6a 40                	push   $0x40
    2ceb:	8d 44 24 18          	lea    0x18(%esp),%eax
    2cef:	50                   	push   %eax
    2cf0:	e8 fc ff ff ff       	call   2cf1 <initialize_bomb+0x43>
    2cf5:	83 c4 10             	add    $0x10,%esp
    2cf8:	85 c0                	test   %eax,%eax
    2cfa:	75 47                	jne    2d43 <initialize_bomb+0x95>
    2cfc:	89 c3                	mov    %eax,%ebx
    2cfe:	a1 40 75 00 00       	mov    0x7540,%eax
    2d03:	8d 74 24 0c          	lea    0xc(%esp),%esi
    2d07:	85 c0                	test   %eax,%eax
    2d09:	74 1f                	je     2d2a <initialize_bomb+0x7c>
    2d0b:	83 ec 08             	sub    $0x8,%esp
    2d0e:	56                   	push   %esi
    2d0f:	50                   	push   %eax
    2d10:	e8 fc ff ff ff       	call   2d11 <initialize_bomb+0x63>
    2d15:	83 c4 10             	add    $0x10,%esp
    2d18:	85 c0                	test   %eax,%eax
    2d1a:	74 60                	je     2d7c <initialize_bomb+0xce>
    2d1c:	83 c3 01             	add    $0x1,%ebx
    2d1f:	8b 04 9d 40 75 00 00 	mov    0x7540(,%ebx,4),%eax
    2d26:	85 c0                	test   %eax,%eax
    2d28:	75 e1                	jne    2d0b <initialize_bomb+0x5d>
    2d2a:	83 ec 0c             	sub    $0xc,%esp
    2d2d:	68 30 43 00 00       	push   $0x4330
    2d32:	e8 fc ff ff ff       	call   2d33 <initialize_bomb+0x85>
    2d37:	c7 04 24 08 00 00 00 	movl   $0x8,(%esp)
    2d3e:	e8 fc ff ff ff       	call   2d3f <initialize_bomb+0x91>
    2d43:	83 ec 0c             	sub    $0xc,%esp
    2d46:	68 f8 42 00 00       	push   $0x42f8
    2d4b:	e8 fc ff ff ff       	call   2d4c <initialize_bomb+0x9e>
    2d50:	c7 04 24 08 00 00 00 	movl   $0x8,(%esp)
    2d57:	e8 fc ff ff ff       	call   2d58 <initialize_bomb+0xaa>
    2d5c:	83 ec 04             	sub    $0x4,%esp
    2d5f:	8d 44 24 50          	lea    0x50(%esp),%eax
    2d63:	50                   	push   %eax
    2d64:	68 1a 44 00 00       	push   $0x441a
    2d69:	6a 01                	push   $0x1
    2d6b:	e8 fc ff ff ff       	call   2d6c <initialize_bomb+0xbe>
    2d70:	c7 04 24 08 00 00 00 	movl   $0x8,(%esp)
    2d77:	e8 fc ff ff ff       	call   2d78 <initialize_bomb+0xca>
    2d7c:	83 ec 0c             	sub    $0xc,%esp
    2d7f:	8d 44 24 58          	lea    0x58(%esp),%eax
    2d83:	50                   	push   %eax
    2d84:	e8 19 0c 00 00       	call   39a2 <init_driver>
    2d89:	83 c4 10             	add    $0x10,%esp
    2d8c:	85 c0                	test   %eax,%eax
    2d8e:	78 cc                	js     2d5c <initialize_bomb+0xae>
    2d90:	8b 84 24 4c 20 00 00 	mov    0x204c(%esp),%eax
    2d97:	65 33 05 14 00 00 00 	xor    %gs:0x14,%eax
    2d9e:	75 09                	jne    2da9 <initialize_bomb+0xfb>
    2da0:	81 c4 54 20 00 00    	add    $0x2054,%esp
    2da6:	5b                   	pop    %ebx
    2da7:	5e                   	pop    %esi
    2da8:	c3                   	ret    
    2da9:	e8 fc ff ff ff       	call   2daa <initialize_bomb+0xfc>

00002dae <initialize_bomb_solve>:
    2dae:	f3 0f 1e fb          	endbr32 
    2db2:	c3                   	ret    

00002db3 <blank_line>:
    2db3:	f3 0f 1e fb          	endbr32 
    2db7:	56                   	push   %esi
    2db8:	53                   	push   %ebx
    2db9:	83 ec 04             	sub    $0x4,%esp
    2dbc:	8b 74 24 10          	mov    0x10(%esp),%esi
    2dc0:	0f b6 1e             	movzbl (%esi),%ebx
    2dc3:	84 db                	test   %bl,%bl
    2dc5:	74 1b                	je     2de2 <blank_line+0x2f>
    2dc7:	e8 fc ff ff ff       	call   2dc8 <blank_line+0x15>
    2dcc:	83 c6 01             	add    $0x1,%esi
    2dcf:	0f be db             	movsbl %bl,%ebx
    2dd2:	8b 00                	mov    (%eax),%eax
    2dd4:	f6 44 58 01 20       	testb  $0x20,0x1(%eax,%ebx,2)
    2dd9:	75 e5                	jne    2dc0 <blank_line+0xd>
    2ddb:	b8 00 00 00 00       	mov    $0x0,%eax
    2de0:	eb 05                	jmp    2de7 <blank_line+0x34>
    2de2:	b8 01 00 00 00       	mov    $0x1,%eax
    2de7:	83 c4 04             	add    $0x4,%esp
    2dea:	5b                   	pop    %ebx
    2deb:	5e                   	pop    %esi
    2dec:	c3                   	ret    

00002ded <skip>:
    2ded:	f3 0f 1e fb          	endbr32 
    2df1:	53                   	push   %ebx
    2df2:	83 ec 08             	sub    $0x8,%esp
    2df5:	83 ec 04             	sub    $0x4,%esp
    2df8:	ff 35 70 77 00 00    	pushl  0x7770
    2dfe:	6a 55                	push   $0x55
    2e00:	6b 05 6c 77 00 00 55 	imul   $0x55,0x776c,%eax
    2e07:	05 80 77 00 00       	add    $0x7780,%eax
    2e0c:	50                   	push   %eax
    2e0d:	e8 fc ff ff ff       	call   2e0e <skip+0x21>
    2e12:	89 c3                	mov    %eax,%ebx
    2e14:	83 c4 10             	add    $0x10,%esp
    2e17:	85 c0                	test   %eax,%eax
    2e19:	74 10                	je     2e2b <skip+0x3e>
    2e1b:	83 ec 0c             	sub    $0xc,%esp
    2e1e:	50                   	push   %eax
    2e1f:	e8 8f ff ff ff       	call   2db3 <blank_line>
    2e24:	83 c4 10             	add    $0x10,%esp
    2e27:	85 c0                	test   %eax,%eax
    2e29:	75 ca                	jne    2df5 <skip+0x8>
    2e2b:	89 d8                	mov    %ebx,%eax
    2e2d:	83 c4 08             	add    $0x8,%esp
    2e30:	5b                   	pop    %ebx
    2e31:	c3                   	ret    

00002e32 <send_msg>:
    2e32:	f3 0f 1e fb          	endbr32 
    2e36:	53                   	push   %ebx
    2e37:	8d 84 24 00 c0 ff ff 	lea    -0x4000(%esp),%eax
    2e3e:	81 ec 00 10 00 00    	sub    $0x1000,%esp
    2e44:	83 0c 24 00          	orl    $0x0,(%esp)
    2e48:	39 c4                	cmp    %eax,%esp
    2e4a:	75 f2                	jne    2e3e <send_msg+0xc>
    2e4c:	83 ec 18             	sub    $0x18,%esp
    2e4f:	65 a1 14 00 00 00    	mov    %gs:0x14,%eax
    2e55:	89 84 24 0c 40 00 00 	mov    %eax,0x400c(%esp)
    2e5c:	31 c0                	xor    %eax,%eax
    2e5e:	8b 0d 6c 77 00 00    	mov    0x776c,%ecx
    2e64:	8d 41 ff             	lea    -0x1(%ecx),%eax
    2e67:	6b c0 55             	imul   $0x55,%eax,%eax
    2e6a:	05 80 77 00 00       	add    $0x7780,%eax
    2e6f:	83 bc 24 20 40 00 00 	cmpl   $0x0,0x4020(%esp)
    2e76:	00 
    2e77:	ba 34 44 00 00       	mov    $0x4434,%edx
    2e7c:	bb 3c 44 00 00       	mov    $0x443c,%ebx
    2e81:	0f 44 d3             	cmove  %ebx,%edx
    2e84:	50                   	push   %eax
    2e85:	51                   	push   %ecx
    2e86:	52                   	push   %edx
    2e87:	ff 35 20 75 00 00    	pushl  0x7520
    2e8d:	68 45 44 00 00       	push   $0x4445
    2e92:	68 00 20 00 00       	push   $0x2000
    2e97:	6a 01                	push   $0x1
    2e99:	8d 5c 24 28          	lea    0x28(%esp),%ebx
    2e9d:	53                   	push   %ebx
    2e9e:	e8 fc ff ff ff       	call   2e9f <send_msg+0x6d>
    2ea3:	83 c4 20             	add    $0x20,%esp
    2ea6:	8d 84 24 0c 20 00 00 	lea    0x200c(%esp),%eax
    2ead:	50                   	push   %eax
    2eae:	6a 00                	push   $0x0
    2eb0:	53                   	push   %ebx
    2eb1:	68 20 71 00 00       	push   $0x7120
    2eb6:	e8 cd 0c 00 00       	call   3b88 <driver_post>
    2ebb:	83 c4 10             	add    $0x10,%esp
    2ebe:	85 c0                	test   %eax,%eax
    2ec0:	78 18                	js     2eda <send_msg+0xa8>
    2ec2:	8b 84 24 0c 40 00 00 	mov    0x400c(%esp),%eax
    2ec9:	65 33 05 14 00 00 00 	xor    %gs:0x14,%eax
    2ed0:	75 24                	jne    2ef6 <send_msg+0xc4>
    2ed2:	81 c4 18 40 00 00    	add    $0x4018,%esp
    2ed8:	5b                   	pop    %ebx
    2ed9:	c3                   	ret    
    2eda:	83 ec 0c             	sub    $0xc,%esp
    2edd:	8d 84 24 18 20 00 00 	lea    0x2018(%esp),%eax
    2ee4:	50                   	push   %eax
    2ee5:	e8 fc ff ff ff       	call   2ee6 <send_msg+0xb4>
    2eea:	c7 04 24 00 00 00 00 	movl   $0x0,(%esp)
    2ef1:	e8 fc ff ff ff       	call   2ef2 <send_msg+0xc0>
    2ef6:	e8 fc ff ff ff       	call   2ef7 <send_msg+0xc5>

00002efb <explode_bomb>:
    2efb:	f3 0f 1e fb          	endbr32 
    2eff:	56                   	push   %esi
    2f00:	5e                   	pop    %esi
    2f01:	83 ec 18             	sub    $0x18,%esp
    2f04:	68 51 44 00 00       	push   $0x4451
    2f09:	e8 fc ff ff ff       	call   2f0a <explode_bomb+0xf>
    2f0e:	c7 04 24 5a 44 00 00 	movl   $0x445a,(%esp)
    2f15:	e8 fc ff ff ff       	call   2f16 <explode_bomb+0x1b>
    2f1a:	c7 04 24 00 00 00 00 	movl   $0x0,(%esp)
    2f21:	e8 0c ff ff ff       	call   2e32 <send_msg>
    2f26:	c7 04 24 68 43 00 00 	movl   $0x4368,(%esp)
    2f2d:	e8 fc ff ff ff       	call   2f2e <explode_bomb+0x33>
    2f32:	c7 04 24 08 00 00 00 	movl   $0x8,(%esp)
    2f39:	e8 fc ff ff ff       	call   2f3a <explode_bomb+0x3f>

00002f3e <read_six_numbers>:
    2f3e:	f3 0f 1e fb          	endbr32 
    2f42:	83 ec 0c             	sub    $0xc,%esp
    2f45:	8b 44 24 14          	mov    0x14(%esp),%eax
    2f49:	8d 50 14             	lea    0x14(%eax),%edx
    2f4c:	52                   	push   %edx
    2f4d:	8d 50 10             	lea    0x10(%eax),%edx
    2f50:	52                   	push   %edx
    2f51:	8d 50 0c             	lea    0xc(%eax),%edx
    2f54:	52                   	push   %edx
    2f55:	8d 50 08             	lea    0x8(%eax),%edx
    2f58:	52                   	push   %edx
    2f59:	8d 50 04             	lea    0x4(%eax),%edx
    2f5c:	52                   	push   %edx
    2f5d:	50                   	push   %eax
    2f5e:	68 71 44 00 00       	push   $0x4471
    2f63:	ff 74 24 2c          	pushl  0x2c(%esp)
    2f67:	e8 fc ff ff ff       	call   2f68 <read_six_numbers+0x2a>
    2f6c:	83 c4 20             	add    $0x20,%esp
    2f6f:	83 f8 05             	cmp    $0x5,%eax
    2f72:	7e 04                	jle    2f78 <read_six_numbers+0x3a>
    2f74:	83 c4 0c             	add    $0xc,%esp
    2f77:	c3                   	ret    
    2f78:	e8 7e ff ff ff       	call   2efb <explode_bomb>

00002f7d <read_line>:
    2f7d:	f3 0f 1e fb          	endbr32 
    2f81:	57                   	push   %edi
    2f82:	56                   	push   %esi
    2f83:	53                   	push   %ebx
    2f84:	e8 64 fe ff ff       	call   2ded <skip>
    2f89:	85 c0                	test   %eax,%eax
    2f8b:	74 45                	je     2fd2 <read_line+0x55>
    2f8d:	8b 15 6c 77 00 00    	mov    0x776c,%edx
    2f93:	6b da 55             	imul   $0x55,%edx,%ebx
    2f96:	81 c3 80 77 00 00    	add    $0x7780,%ebx
    2f9c:	b9 ff ff ff ff       	mov    $0xffffffff,%ecx
    2fa1:	b8 00 00 00 00       	mov    $0x0,%eax
    2fa6:	89 df                	mov    %ebx,%edi
    2fa8:	f2 ae                	repnz scas %es:(%edi),%al
    2faa:	f7 d1                	not    %ecx
    2fac:	83 e9 01             	sub    $0x1,%ecx
    2faf:	83 f9 53             	cmp    $0x53,%ecx
    2fb2:	0f 8f 8e 00 00 00    	jg     3046 <read_line+0xc9>
    2fb8:	6b c2 55             	imul   $0x55,%edx,%eax
    2fbb:	c6 84 01 7f 77 00 00 	movb   $0x0,0x777f(%ecx,%eax,1)
    2fc2:	00 
    2fc3:	83 c2 01             	add    $0x1,%edx
    2fc6:	89 15 6c 77 00 00    	mov    %edx,0x776c
    2fcc:	89 d8                	mov    %ebx,%eax
    2fce:	5b                   	pop    %ebx
    2fcf:	5e                   	pop    %esi
    2fd0:	5f                   	pop    %edi
    2fd1:	c3                   	ret    
    2fd2:	a1 00 00 00 00       	mov    0x0,%eax
    2fd7:	39 05 70 77 00 00    	cmp    %eax,0x7770
    2fdd:	74 1e                	je     2ffd <read_line+0x80>
    2fdf:	83 ec 0c             	sub    $0xc,%esp
    2fe2:	68 a1 44 00 00       	push   $0x44a1
    2fe7:	e8 fc ff ff ff       	call   2fe8 <read_line+0x6b>
    2fec:	83 c4 10             	add    $0x10,%esp
    2fef:	85 c0                	test   %eax,%eax
    2ff1:	74 23                	je     3016 <read_line+0x99>
    2ff3:	83 ec 0c             	sub    $0xc,%esp
    2ff6:	6a 00                	push   $0x0
    2ff8:	e8 fc ff ff ff       	call   2ff9 <read_line+0x7c>
    2ffd:	83 ec 0c             	sub    $0xc,%esp
    3000:	68 83 44 00 00       	push   $0x4483
    3005:	e8 fc ff ff ff       	call   3006 <read_line+0x89>
    300a:	c7 04 24 08 00 00 00 	movl   $0x8,(%esp)
    3011:	e8 fc ff ff ff       	call   3012 <read_line+0x95>
    3016:	a1 00 00 00 00       	mov    0x0,%eax
    301b:	a3 70 77 00 00       	mov    %eax,0x7770
    3020:	e8 c8 fd ff ff       	call   2ded <skip>
    3025:	85 c0                	test   %eax,%eax
    3027:	0f 85 60 ff ff ff    	jne    2f8d <read_line+0x10>
    302d:	83 ec 0c             	sub    $0xc,%esp
    3030:	68 83 44 00 00       	push   $0x4483
    3035:	e8 fc ff ff ff       	call   3036 <read_line+0xb9>
    303a:	c7 04 24 00 00 00 00 	movl   $0x0,(%esp)
    3041:	e8 fc ff ff ff       	call   3042 <read_line+0xc5>
    3046:	83 ec 0c             	sub    $0xc,%esp
    3049:	68 ac 44 00 00       	push   $0x44ac
    304e:	e8 fc ff ff ff       	call   304f <read_line+0xd2>
    3053:	a1 6c 77 00 00       	mov    0x776c,%eax
    3058:	8d 50 01             	lea    0x1(%eax),%edx
    305b:	89 15 6c 77 00 00    	mov    %edx,0x776c
    3061:	6b c0 55             	imul   $0x55,%eax,%eax
    3064:	05 80 77 00 00       	add    $0x7780,%eax
    3069:	ba c7 44 00 00       	mov    $0x44c7,%edx
    306e:	b9 04 00 00 00       	mov    $0x4,%ecx
    3073:	89 c7                	mov    %eax,%edi
    3075:	89 d6                	mov    %edx,%esi
    3077:	f3 a5                	rep movsl %ds:(%esi),%es:(%edi)
    3079:	e8 7d fe ff ff       	call   2efb <explode_bomb>

0000307e <phase_defused>:
    307e:	f3 0f 1e fb          	endbr32 
    3082:	83 ec 18             	sub    $0x18,%esp
    3085:	6a 01                	push   $0x1
    3087:	e8 a6 fd ff ff       	call   2e32 <send_msg>
    308c:	83 c4 10             	add    $0x10,%esp
    308f:	83 3d 6c 77 00 00 09 	cmpl   $0x9,0x776c
    3096:	74 04                	je     309c <phase_defused+0x1e>
    3098:	83 c4 0c             	add    $0xc,%esp
    309b:	c3                   	ret    
    309c:	83 ec 0c             	sub    $0xc,%esp
    309f:	68 8c 43 00 00       	push   $0x438c
    30a4:	e8 fc ff ff ff       	call   30a5 <phase_defused+0x27>
    30a9:	c7 04 24 b8 43 00 00 	movl   $0x43b8,(%esp)
    30b0:	e8 fc ff ff ff       	call   30b1 <phase_defused+0x33>
    30b5:	83 c4 10             	add    $0x10,%esp
    30b8:	eb de                	jmp    3098 <phase_defused+0x1a>

000030ba <sigalrm_handler>:
    30ba:	f3 0f 1e fb          	endbr32 
    30be:	56                   	push   %esi
    30bf:	5e                   	pop    %esi
    30c0:	83 ec 0c             	sub    $0xc,%esp
    30c3:	6a 00                	push   $0x0
    30c5:	68 50 47 00 00       	push   $0x4750
    30ca:	6a 01                	push   $0x1
    30cc:	ff 35 00 00 00 00    	pushl  0x0
    30d2:	e8 fc ff ff ff       	call   30d3 <sigalrm_handler+0x19>
    30d7:	c7 04 24 01 00 00 00 	movl   $0x1,(%esp)
    30de:	e8 fc ff ff ff       	call   30df <sigalrm_handler+0x25>

000030e3 <rio_readlineb>:
    30e3:	55                   	push   %ebp
    30e4:	57                   	push   %edi
    30e5:	56                   	push   %esi
    30e6:	53                   	push   %ebx
    30e7:	83 ec 1c             	sub    $0x1c,%esp
    30ea:	89 d6                	mov    %edx,%esi
    30ec:	83 f9 01             	cmp    $0x1,%ecx
    30ef:	76 7e                	jbe    316f <rio_readlineb+0x8c>
    30f1:	89 c3                	mov    %eax,%ebx
    30f3:	8d 44 0a ff          	lea    -0x1(%edx,%ecx,1),%eax
    30f7:	89 44 24 0c          	mov    %eax,0xc(%esp)
    30fb:	bd 01 00 00 00       	mov    $0x1,%ebp
    3100:	8d 7b 0c             	lea    0xc(%ebx),%edi
    3103:	eb 4f                	jmp    3154 <rio_readlineb+0x71>
    3105:	e8 fc ff ff ff       	call   3106 <rio_readlineb+0x23>
    310a:	83 38 04             	cmpl   $0x4,(%eax)
    310d:	75 4e                	jne    315d <rio_readlineb+0x7a>
    310f:	83 ec 04             	sub    $0x4,%esp
    3112:	68 00 20 00 00       	push   $0x2000
    3117:	57                   	push   %edi
    3118:	ff 33                	pushl  (%ebx)
    311a:	e8 fc ff ff ff       	call   311b <rio_readlineb+0x38>
    311f:	89 43 04             	mov    %eax,0x4(%ebx)
    3122:	83 c4 10             	add    $0x10,%esp
    3125:	85 c0                	test   %eax,%eax
    3127:	78 dc                	js     3105 <rio_readlineb+0x22>
    3129:	74 37                	je     3162 <rio_readlineb+0x7f>
    312b:	89 7b 08             	mov    %edi,0x8(%ebx)
    312e:	8b 53 08             	mov    0x8(%ebx),%edx
    3131:	0f b6 0a             	movzbl (%edx),%ecx
    3134:	83 c2 01             	add    $0x1,%edx
    3137:	89 53 08             	mov    %edx,0x8(%ebx)
    313a:	83 e8 01             	sub    $0x1,%eax
    313d:	89 43 04             	mov    %eax,0x4(%ebx)
    3140:	83 c6 01             	add    $0x1,%esi
    3143:	88 4e ff             	mov    %cl,-0x1(%esi)
    3146:	80 f9 0a             	cmp    $0xa,%cl
    3149:	74 2f                	je     317a <rio_readlineb+0x97>
    314b:	83 c5 01             	add    $0x1,%ebp
    314e:	3b 74 24 0c          	cmp    0xc(%esp),%esi
    3152:	74 22                	je     3176 <rio_readlineb+0x93>
    3154:	8b 43 04             	mov    0x4(%ebx),%eax
    3157:	85 c0                	test   %eax,%eax
    3159:	7e b4                	jle    310f <rio_readlineb+0x2c>
    315b:	eb d1                	jmp    312e <rio_readlineb+0x4b>
    315d:	b8 ff ff ff ff       	mov    $0xffffffff,%eax
    3162:	85 c0                	test   %eax,%eax
    3164:	75 21                	jne    3187 <rio_readlineb+0xa4>
    3166:	83 fd 01             	cmp    $0x1,%ebp
    3169:	75 0f                	jne    317a <rio_readlineb+0x97>
    316b:	89 c5                	mov    %eax,%ebp
    316d:	eb 0e                	jmp    317d <rio_readlineb+0x9a>
    316f:	bd 01 00 00 00       	mov    $0x1,%ebp
    3174:	eb 04                	jmp    317a <rio_readlineb+0x97>
    3176:	8b 74 24 0c          	mov    0xc(%esp),%esi
    317a:	c6 06 00             	movb   $0x0,(%esi)
    317d:	89 e8                	mov    %ebp,%eax
    317f:	83 c4 1c             	add    $0x1c,%esp
    3182:	5b                   	pop    %ebx
    3183:	5e                   	pop    %esi
    3184:	5f                   	pop    %edi
    3185:	5d                   	pop    %ebp
    3186:	c3                   	ret    
    3187:	bd ff ff ff ff       	mov    $0xffffffff,%ebp
    318c:	eb ef                	jmp    317d <rio_readlineb+0x9a>

0000318e <submitr>:
    318e:	f3 0f 1e fb          	endbr32 
    3192:	55                   	push   %ebp
    3193:	57                   	push   %edi
    3194:	56                   	push   %esi
    3195:	53                   	push   %ebx
    3196:	8d 84 24 00 60 ff ff 	lea    -0xa000(%esp),%eax
    319d:	81 ec 00 10 00 00    	sub    $0x1000,%esp
    31a3:	83 0c 24 00          	orl    $0x0,(%esp)
    31a7:	39 c4                	cmp    %eax,%esp
    31a9:	75 f2                	jne    319d <submitr+0xf>
    31ab:	83 ec 60             	sub    $0x60,%esp
    31ae:	8b 9c 24 74 a0 00 00 	mov    0xa074(%esp),%ebx
    31b5:	8b 84 24 7c a0 00 00 	mov    0xa07c(%esp),%eax
    31bc:	89 44 24 10          	mov    %eax,0x10(%esp)
    31c0:	8b 84 24 80 a0 00 00 	mov    0xa080(%esp),%eax
    31c7:	89 44 24 14          	mov    %eax,0x14(%esp)
    31cb:	8b 84 24 84 a0 00 00 	mov    0xa084(%esp),%eax
    31d2:	89 44 24 18          	mov    %eax,0x18(%esp)
    31d6:	8b ac 24 88 a0 00 00 	mov    0xa088(%esp),%ebp
    31dd:	8b 84 24 8c a0 00 00 	mov    0xa08c(%esp),%eax
    31e4:	89 44 24 1c          	mov    %eax,0x1c(%esp)
    31e8:	65 a1 14 00 00 00    	mov    %gs:0x14,%eax
    31ee:	89 84 24 50 a0 00 00 	mov    %eax,0xa050(%esp)
    31f5:	31 c0                	xor    %eax,%eax
    31f7:	c7 44 24 30 00 00 00 	movl   $0x0,0x30(%esp)
    31fe:	00 
    31ff:	6a 00                	push   $0x0
    3201:	6a 01                	push   $0x1
    3203:	6a 02                	push   $0x2
    3205:	e8 fc ff ff ff       	call   3206 <submitr+0x78>
    320a:	89 44 24 18          	mov    %eax,0x18(%esp)
    320e:	83 c4 10             	add    $0x10,%esp
    3211:	85 c0                	test   %eax,%eax
    3213:	0f 88 ff 00 00 00    	js     3318 <submitr+0x18a>
    3219:	83 ec 0c             	sub    $0xc,%esp
    321c:	53                   	push   %ebx
    321d:	e8 fc ff ff ff       	call   321e <submitr+0x90>
    3222:	83 c4 10             	add    $0x10,%esp
    3225:	85 c0                	test   %eax,%eax
    3227:	0f 84 3d 01 00 00    	je     336a <submitr+0x1dc>
    322d:	8d 5c 24 30          	lea    0x30(%esp),%ebx
    3231:	c7 44 24 30 00 00 00 	movl   $0x0,0x30(%esp)
    3238:	00 
    3239:	c7 44 24 34 00 00 00 	movl   $0x0,0x34(%esp)
    3240:	00 
    3241:	c7 44 24 38 00 00 00 	movl   $0x0,0x38(%esp)
    3248:	00 
    3249:	c7 44 24 3c 00 00 00 	movl   $0x0,0x3c(%esp)
    3250:	00 
    3251:	66 c7 44 24 30 02 00 	movw   $0x2,0x30(%esp)
    3258:	6a 0c                	push   $0xc
    325a:	ff 70 0c             	pushl  0xc(%eax)
    325d:	8b 40 10             	mov    0x10(%eax),%eax
    3260:	ff 30                	pushl  (%eax)
    3262:	8d 44 24 40          	lea    0x40(%esp),%eax
    3266:	50                   	push   %eax
    3267:	e8 fc ff ff ff       	call   3268 <submitr+0xda>
    326c:	0f b7 84 24 84 a0 00 	movzwl 0xa084(%esp),%eax
    3273:	00 
    3274:	66 c1 c0 08          	rol    $0x8,%ax
    3278:	66 89 44 24 42       	mov    %ax,0x42(%esp)
    327d:	83 c4 0c             	add    $0xc,%esp
    3280:	6a 10                	push   $0x10
    3282:	53                   	push   %ebx
    3283:	ff 74 24 14          	pushl  0x14(%esp)
    3287:	e8 fc ff ff ff       	call   3288 <submitr+0xfa>
    328c:	83 c4 10             	add    $0x10,%esp
    328f:	85 c0                	test   %eax,%eax
    3291:	0f 88 46 01 00 00    	js     33dd <submitr+0x24f>
    3297:	be ff ff ff ff       	mov    $0xffffffff,%esi
    329c:	b8 00 00 00 00       	mov    $0x0,%eax
    32a1:	89 f1                	mov    %esi,%ecx
    32a3:	89 ef                	mov    %ebp,%edi
    32a5:	f2 ae                	repnz scas %es:(%edi),%al
    32a7:	89 cb                	mov    %ecx,%ebx
    32a9:	f7 d3                	not    %ebx
    32ab:	89 f1                	mov    %esi,%ecx
    32ad:	8b 7c 24 0c          	mov    0xc(%esp),%edi
    32b1:	f2 ae                	repnz scas %es:(%edi),%al
    32b3:	89 4c 24 1c          	mov    %ecx,0x1c(%esp)
    32b7:	89 f1                	mov    %esi,%ecx
    32b9:	8b 7c 24 10          	mov    0x10(%esp),%edi
    32bd:	f2 ae                	repnz scas %es:(%edi),%al
    32bf:	89 ca                	mov    %ecx,%edx
    32c1:	f7 d2                	not    %edx
    32c3:	89 f1                	mov    %esi,%ecx
    32c5:	8b 7c 24 14          	mov    0x14(%esp),%edi
    32c9:	f2 ae                	repnz scas %es:(%edi),%al
    32cb:	2b 54 24 1c          	sub    0x1c(%esp),%edx
    32cf:	29 ca                	sub    %ecx,%edx
    32d1:	8d 44 5b fd          	lea    -0x3(%ebx,%ebx,2),%eax
    32d5:	8d 44 02 7b          	lea    0x7b(%edx,%eax,1),%eax
    32d9:	3d 00 20 00 00       	cmp    $0x2000,%eax
    32de:	0f 87 5e 01 00 00    	ja     3442 <submitr+0x2b4>
    32e4:	8d 94 24 4c 40 00 00 	lea    0x404c(%esp),%edx
    32eb:	b9 00 08 00 00       	mov    $0x800,%ecx
    32f0:	b8 00 00 00 00       	mov    $0x0,%eax
    32f5:	89 d7                	mov    %edx,%edi
    32f7:	f3 ab                	rep stos %eax,%es:(%edi)
    32f9:	b9 ff ff ff ff       	mov    $0xffffffff,%ecx
    32fe:	89 ef                	mov    %ebp,%edi
    3300:	f2 ae                	repnz scas %es:(%edi),%al
    3302:	f7 d1                	not    %ecx
    3304:	89 cf                	mov    %ecx,%edi
    3306:	83 ef 01             	sub    $0x1,%edi
    3309:	0f 84 df 04 00 00    	je     37ee <submitr+0x660>
    330f:	89 eb                	mov    %ebp,%ebx
    3311:	89 d6                	mov    %edx,%esi
    3313:	e9 c4 01 00 00       	jmp    34dc <submitr+0x34e>
    3318:	8b 44 24 18          	mov    0x18(%esp),%eax
    331c:	c7 00 45 72 72 6f    	movl   $0x6f727245,(%eax)
    3322:	c7 40 04 72 3a 20 43 	movl   $0x43203a72,0x4(%eax)
    3329:	c7 40 08 6c 69 65 6e 	movl   $0x6e65696c,0x8(%eax)
    3330:	c7 40 0c 74 20 75 6e 	movl   $0x6e752074,0xc(%eax)
    3337:	c7 40 10 61 62 6c 65 	movl   $0x656c6261,0x10(%eax)
    333e:	c7 40 14 20 74 6f 20 	movl   $0x206f7420,0x14(%eax)
    3345:	c7 40 18 63 72 65 61 	movl   $0x61657263,0x18(%eax)
    334c:	c7 40 1c 74 65 20 73 	movl   $0x73206574,0x1c(%eax)
    3353:	c7 40 20 6f 63 6b 65 	movl   $0x656b636f,0x20(%eax)
    335a:	66 c7 40 24 74 00    	movw   $0x74,0x24(%eax)
    3360:	b8 ff ff ff ff       	mov    $0xffffffff,%eax
    3365:	e9 37 03 00 00       	jmp    36a1 <submitr+0x513>
    336a:	8b 44 24 18          	mov    0x18(%esp),%eax
    336e:	c7 00 45 72 72 6f    	movl   $0x6f727245,(%eax)
    3374:	c7 40 04 72 3a 20 44 	movl   $0x44203a72,0x4(%eax)
    337b:	c7 40 08 4e 53 20 69 	movl   $0x6920534e,0x8(%eax)
    3382:	c7 40 0c 73 20 75 6e 	movl   $0x6e752073,0xc(%eax)
    3389:	c7 40 10 61 62 6c 65 	movl   $0x656c6261,0x10(%eax)
    3390:	c7 40 14 20 74 6f 20 	movl   $0x206f7420,0x14(%eax)
    3397:	c7 40 18 72 65 73 6f 	movl   $0x6f736572,0x18(%eax)
    339e:	c7 40 1c 6c 76 65 20 	movl   $0x2065766c,0x1c(%eax)
    33a5:	c7 40 20 73 65 72 76 	movl   $0x76726573,0x20(%eax)
    33ac:	c7 40 24 65 72 20 61 	movl   $0x61207265,0x24(%eax)
    33b3:	c7 40 28 64 64 72 65 	movl   $0x65726464,0x28(%eax)
    33ba:	66 c7 40 2c 73 73    	movw   $0x7373,0x2c(%eax)
    33c0:	c6 40 2e 00          	movb   $0x0,0x2e(%eax)
    33c4:	83 ec 0c             	sub    $0xc,%esp
    33c7:	ff 74 24 14          	pushl  0x14(%esp)
    33cb:	e8 fc ff ff ff       	call   33cc <submitr+0x23e>
    33d0:	83 c4 10             	add    $0x10,%esp
    33d3:	b8 ff ff ff ff       	mov    $0xffffffff,%eax
    33d8:	e9 c4 02 00 00       	jmp    36a1 <submitr+0x513>
    33dd:	8b 44 24 18          	mov    0x18(%esp),%eax
    33e1:	c7 00 45 72 72 6f    	movl   $0x6f727245,(%eax)
    33e7:	c7 40 04 72 3a 20 55 	movl   $0x55203a72,0x4(%eax)
    33ee:	c7 40 08 6e 61 62 6c 	movl   $0x6c62616e,0x8(%eax)
    33f5:	c7 40 0c 65 20 74 6f 	movl   $0x6f742065,0xc(%eax)
    33fc:	c7 40 10 20 63 6f 6e 	movl   $0x6e6f6320,0x10(%eax)
    3403:	c7 40 14 6e 65 63 74 	movl   $0x7463656e,0x14(%eax)
    340a:	c7 40 18 20 74 6f 20 	movl   $0x206f7420,0x18(%eax)
    3411:	c7 40 1c 74 68 65 20 	movl   $0x20656874,0x1c(%eax)
    3418:	c7 40 20 73 65 72 76 	movl   $0x76726573,0x20(%eax)
    341f:	66 c7 40 24 65 72    	movw   $0x7265,0x24(%eax)
    3425:	c6 40 26 00          	movb   $0x0,0x26(%eax)
    3429:	83 ec 0c             	sub    $0xc,%esp
    342c:	ff 74 24 14          	pushl  0x14(%esp)
    3430:	e8 fc ff ff ff       	call   3431 <submitr+0x2a3>
    3435:	83 c4 10             	add    $0x10,%esp
    3438:	b8 ff ff ff ff       	mov    $0xffffffff,%eax
    343d:	e9 5f 02 00 00       	jmp    36a1 <submitr+0x513>
    3442:	8b 44 24 18          	mov    0x18(%esp),%eax
    3446:	c7 00 45 72 72 6f    	movl   $0x6f727245,(%eax)
    344c:	c7 40 04 72 3a 20 52 	movl   $0x52203a72,0x4(%eax)
    3453:	c7 40 08 65 73 75 6c 	movl   $0x6c757365,0x8(%eax)
    345a:	c7 40 0c 74 20 73 74 	movl   $0x74732074,0xc(%eax)
    3461:	c7 40 10 72 69 6e 67 	movl   $0x676e6972,0x10(%eax)
    3468:	c7 40 14 20 74 6f 6f 	movl   $0x6f6f7420,0x14(%eax)
    346f:	c7 40 18 20 6c 61 72 	movl   $0x72616c20,0x18(%eax)
    3476:	c7 40 1c 67 65 2e 20 	movl   $0x202e6567,0x1c(%eax)
    347d:	c7 40 20 49 6e 63 72 	movl   $0x72636e49,0x20(%eax)
    3484:	c7 40 24 65 61 73 65 	movl   $0x65736165,0x24(%eax)
    348b:	c7 40 28 20 53 55 42 	movl   $0x42555320,0x28(%eax)
    3492:	c7 40 2c 4d 49 54 52 	movl   $0x5254494d,0x2c(%eax)
    3499:	c7 40 30 5f 4d 41 58 	movl   $0x58414d5f,0x30(%eax)
    34a0:	c7 40 34 42 55 46 00 	movl   $0x465542,0x34(%eax)
    34a7:	83 ec 0c             	sub    $0xc,%esp
    34aa:	ff 74 24 14          	pushl  0x14(%esp)
    34ae:	e8 fc ff ff ff       	call   34af <submitr+0x321>
    34b3:	83 c4 10             	add    $0x10,%esp
    34b6:	b8 ff ff ff ff       	mov    $0xffffffff,%eax
    34bb:	e9 e1 01 00 00       	jmp    36a1 <submitr+0x513>
    34c0:	3c 5f                	cmp    $0x5f,%al
    34c2:	0f 85 82 00 00 00    	jne    354a <submitr+0x3bc>
    34c8:	88 06                	mov    %al,(%esi)
    34ca:	8d 76 01             	lea    0x1(%esi),%esi
    34cd:	83 c3 01             	add    $0x1,%ebx
    34d0:	8d 44 3d 00          	lea    0x0(%ebp,%edi,1),%eax
    34d4:	39 c3                	cmp    %eax,%ebx
    34d6:	0f 84 12 03 00 00    	je     37ee <submitr+0x660>
    34dc:	0f b6 03             	movzbl (%ebx),%eax
    34df:	8d 50 d6             	lea    -0x2a(%eax),%edx
    34e2:	80 fa 0f             	cmp    $0xf,%dl
    34e5:	77 d9                	ja     34c0 <submitr+0x332>
    34e7:	b9 d9 ff 00 00       	mov    $0xffd9,%ecx
    34ec:	0f a3 d1             	bt     %edx,%ecx
    34ef:	72 d7                	jb     34c8 <submitr+0x33a>
    34f1:	3c 5f                	cmp    $0x5f,%al
    34f3:	74 d3                	je     34c8 <submitr+0x33a>
    34f5:	8d 50 e0             	lea    -0x20(%eax),%edx
    34f8:	80 fa 5f             	cmp    $0x5f,%dl
    34fb:	76 08                	jbe    3505 <submitr+0x377>
    34fd:	3c 09                	cmp    $0x9,%al
    34ff:	0f 85 a2 02 00 00    	jne    37a7 <submitr+0x619>
    3505:	83 ec 0c             	sub    $0xc,%esp
    3508:	0f b6 c0             	movzbl %al,%eax
    350b:	50                   	push   %eax
    350c:	68 5a 48 00 00       	push   $0x485a
    3511:	6a 08                	push   $0x8
    3513:	6a 01                	push   $0x1
    3515:	8d 84 24 68 80 00 00 	lea    0x8068(%esp),%eax
    351c:	50                   	push   %eax
    351d:	e8 fc ff ff ff       	call   351e <submitr+0x390>
    3522:	0f b6 84 24 6c 80 00 	movzbl 0x806c(%esp),%eax
    3529:	00 
    352a:	88 06                	mov    %al,(%esi)
    352c:	0f b6 84 24 6d 80 00 	movzbl 0x806d(%esp),%eax
    3533:	00 
    3534:	88 46 01             	mov    %al,0x1(%esi)
    3537:	0f b6 84 24 6e 80 00 	movzbl 0x806e(%esp),%eax
    353e:	00 
    353f:	88 46 02             	mov    %al,0x2(%esi)
    3542:	83 c4 20             	add    $0x20,%esp
    3545:	8d 76 03             	lea    0x3(%esi),%esi
    3548:	eb 83                	jmp    34cd <submitr+0x33f>
    354a:	89 c2                	mov    %eax,%edx
    354c:	83 e2 df             	and    $0xffffffdf,%edx
    354f:	83 ea 41             	sub    $0x41,%edx
    3552:	80 fa 19             	cmp    $0x19,%dl
    3555:	0f 86 6d ff ff ff    	jbe    34c8 <submitr+0x33a>
    355b:	3c 20                	cmp    $0x20,%al
    355d:	75 96                	jne    34f5 <submitr+0x367>
    355f:	c6 06 2b             	movb   $0x2b,(%esi)
    3562:	8d 76 01             	lea    0x1(%esi),%esi
    3565:	e9 63 ff ff ff       	jmp    34cd <submitr+0x33f>
    356a:	01 c6                	add    %eax,%esi
    356c:	29 c3                	sub    %eax,%ebx
    356e:	0f 84 d3 02 00 00    	je     3847 <submitr+0x6b9>
    3574:	83 ec 04             	sub    $0x4,%esp
    3577:	53                   	push   %ebx
    3578:	56                   	push   %esi
    3579:	57                   	push   %edi
    357a:	e8 fc ff ff ff       	call   357b <submitr+0x3ed>
    357f:	83 c4 10             	add    $0x10,%esp
    3582:	85 c0                	test   %eax,%eax
    3584:	7f e4                	jg     356a <submitr+0x3dc>
    3586:	e8 fc ff ff ff       	call   3587 <submitr+0x3f9>
    358b:	83 38 04             	cmpl   $0x4,(%eax)
    358e:	0f 85 aa 01 00 00    	jne    373e <submitr+0x5b0>
    3594:	89 e8                	mov    %ebp,%eax
    3596:	eb d2                	jmp    356a <submitr+0x3dc>
    3598:	8b 44 24 18          	mov    0x18(%esp),%eax
    359c:	c7 00 45 72 72 6f    	movl   $0x6f727245,(%eax)
    35a2:	c7 40 04 72 3a 20 43 	movl   $0x43203a72,0x4(%eax)
    35a9:	c7 40 08 6c 69 65 6e 	movl   $0x6e65696c,0x8(%eax)
    35b0:	c7 40 0c 74 20 75 6e 	movl   $0x6e752074,0xc(%eax)
    35b7:	c7 40 10 61 62 6c 65 	movl   $0x656c6261,0x10(%eax)
    35be:	c7 40 14 20 74 6f 20 	movl   $0x206f7420,0x14(%eax)
    35c5:	c7 40 18 72 65 61 64 	movl   $0x64616572,0x18(%eax)
    35cc:	c7 40 1c 20 66 69 72 	movl   $0x72696620,0x1c(%eax)
    35d3:	c7 40 20 73 74 20 68 	movl   $0x68207473,0x20(%eax)
    35da:	c7 40 24 65 61 64 65 	movl   $0x65646165,0x24(%eax)
    35e1:	c7 40 28 72 20 66 72 	movl   $0x72662072,0x28(%eax)
    35e8:	c7 40 2c 6f 6d 20 73 	movl   $0x73206d6f,0x2c(%eax)
    35ef:	c7 40 30 65 72 76 65 	movl   $0x65767265,0x30(%eax)
    35f6:	66 c7 40 34 72 00    	movw   $0x72,0x34(%eax)
    35fc:	83 ec 0c             	sub    $0xc,%esp
    35ff:	ff 74 24 14          	pushl  0x14(%esp)
    3603:	e8 fc ff ff ff       	call   3604 <submitr+0x476>
    3608:	83 c4 10             	add    $0x10,%esp
    360b:	b8 ff ff ff ff       	mov    $0xffffffff,%eax
    3610:	e9 8c 00 00 00       	jmp    36a1 <submitr+0x513>
    3615:	83 ec 08             	sub    $0x8,%esp
    3618:	8d 94 24 54 80 00 00 	lea    0x8054(%esp),%edx
    361f:	52                   	push   %edx
    3620:	50                   	push   %eax
    3621:	68 74 47 00 00       	push   $0x4774
    3626:	6a ff                	push   $0xffffffff
    3628:	6a 01                	push   $0x1
    362a:	ff 74 24 34          	pushl  0x34(%esp)
    362e:	e8 fc ff ff ff       	call   362f <submitr+0x4a1>
    3633:	83 c4 14             	add    $0x14,%esp
    3636:	ff 74 24 14          	pushl  0x14(%esp)
    363a:	e8 fc ff ff ff       	call   363b <submitr+0x4ad>
    363f:	83 c4 10             	add    $0x10,%esp
    3642:	b8 ff ff ff ff       	mov    $0xffffffff,%eax
    3647:	eb 58                	jmp    36a1 <submitr+0x513>
    3649:	b9 00 20 00 00       	mov    $0x2000,%ecx
    364e:	8d 94 24 4c 20 00 00 	lea    0x204c(%esp),%edx
    3655:	8d 44 24 40          	lea    0x40(%esp),%eax
    3659:	e8 85 fa ff ff       	call   30e3 <rio_readlineb>
    365e:	85 c0                	test   %eax,%eax
    3660:	7e 5e                	jle    36c0 <submitr+0x532>
    3662:	83 ec 08             	sub    $0x8,%esp
    3665:	8d 84 24 54 20 00 00 	lea    0x2054(%esp),%eax
    366c:	50                   	push   %eax
    366d:	8b 74 24 24          	mov    0x24(%esp),%esi
    3671:	56                   	push   %esi
    3672:	e8 fc ff ff ff       	call   3673 <submitr+0x4e5>
    3677:	83 c4 04             	add    $0x4,%esp
    367a:	ff 74 24 14          	pushl  0x14(%esp)
    367e:	e8 fc ff ff ff       	call   367f <submitr+0x4f1>
    3683:	bf 75 48 00 00       	mov    $0x4875,%edi
    3688:	b9 03 00 00 00       	mov    $0x3,%ecx
    368d:	f3 a6                	repz cmpsb %es:(%edi),%ds:(%esi)
    368f:	0f 97 c0             	seta   %al
    3692:	1c 00                	sbb    $0x0,%al
    3694:	83 c4 10             	add    $0x10,%esp
    3697:	84 c0                	test   %al,%al
    3699:	0f 95 c0             	setne  %al
    369c:	0f b6 c0             	movzbl %al,%eax
    369f:	f7 d8                	neg    %eax
    36a1:	8b bc 24 4c a0 00 00 	mov    0xa04c(%esp),%edi
    36a8:	65 33 3d 14 00 00 00 	xor    %gs:0x14,%edi
    36af:	0f 85 ad 02 00 00    	jne    3962 <submitr+0x7d4>
    36b5:	81 c4 5c a0 00 00    	add    $0xa05c,%esp
    36bb:	5b                   	pop    %ebx
    36bc:	5e                   	pop    %esi
    36bd:	5f                   	pop    %edi
    36be:	5d                   	pop    %ebp
    36bf:	c3                   	ret    
    36c0:	8b 44 24 18          	mov    0x18(%esp),%eax
    36c4:	c7 00 45 72 72 6f    	movl   $0x6f727245,(%eax)
    36ca:	c7 40 04 72 3a 20 43 	movl   $0x43203a72,0x4(%eax)
    36d1:	c7 40 08 6c 69 65 6e 	movl   $0x6e65696c,0x8(%eax)
    36d8:	c7 40 0c 74 20 75 6e 	movl   $0x6e752074,0xc(%eax)
    36df:	c7 40 10 61 62 6c 65 	movl   $0x656c6261,0x10(%eax)
    36e6:	c7 40 14 20 74 6f 20 	movl   $0x206f7420,0x14(%eax)
    36ed:	c7 40 18 72 65 61 64 	movl   $0x64616572,0x18(%eax)
    36f4:	c7 40 1c 20 73 74 61 	movl   $0x61747320,0x1c(%eax)
    36fb:	c7 40 20 74 75 73 20 	movl   $0x20737574,0x20(%eax)
    3702:	c7 40 24 6d 65 73 73 	movl   $0x7373656d,0x24(%eax)
    3709:	c7 40 28 61 67 65 20 	movl   $0x20656761,0x28(%eax)
    3710:	c7 40 2c 66 72 6f 6d 	movl   $0x6d6f7266,0x2c(%eax)
    3717:	c7 40 30 20 73 65 72 	movl   $0x72657320,0x30(%eax)
    371e:	c7 40 34 76 65 72 00 	movl   $0x726576,0x34(%eax)
    3725:	83 ec 0c             	sub    $0xc,%esp
    3728:	ff 74 24 14          	pushl  0x14(%esp)
    372c:	e8 fc ff ff ff       	call   372d <submitr+0x59f>
    3731:	83 c4 10             	add    $0x10,%esp
    3734:	b8 ff ff ff ff       	mov    $0xffffffff,%eax
    3739:	e9 63 ff ff ff       	jmp    36a1 <submitr+0x513>
    373e:	8b 44 24 18          	mov    0x18(%esp),%eax
    3742:	c7 00 45 72 72 6f    	movl   $0x6f727245,(%eax)
    3748:	c7 40 04 72 3a 20 43 	movl   $0x43203a72,0x4(%eax)
    374f:	c7 40 08 6c 69 65 6e 	movl   $0x6e65696c,0x8(%eax)
    3756:	c7 40 0c 74 20 75 6e 	movl   $0x6e752074,0xc(%eax)
    375d:	c7 40 10 61 62 6c 65 	movl   $0x656c6261,0x10(%eax)
    3764:	c7 40 14 20 74 6f 20 	movl   $0x206f7420,0x14(%eax)
    376b:	c7 40 18 77 72 69 74 	movl   $0x74697277,0x18(%eax)
    3772:	c7 40 1c 65 20 74 6f 	movl   $0x6f742065,0x1c(%eax)
    3779:	c7 40 20 20 74 68 65 	movl   $0x65687420,0x20(%eax)
    3780:	c7 40 24 20 73 65 72 	movl   $0x72657320,0x24(%eax)
    3787:	c7 40 28 76 65 72 00 	movl   $0x726576,0x28(%eax)
    378e:	83 ec 0c             	sub    $0xc,%esp
    3791:	ff 74 24 14          	pushl  0x14(%esp)
    3795:	e8 fc ff ff ff       	call   3796 <submitr+0x608>
    379a:	83 c4 10             	add    $0x10,%esp
    379d:	b8 ff ff ff ff       	mov    $0xffffffff,%eax
    37a2:	e9 fa fe ff ff       	jmp    36a1 <submitr+0x513>
    37a7:	a1 a4 47 00 00       	mov    0x47a4,%eax
    37ac:	8b 7c 24 18          	mov    0x18(%esp),%edi
    37b0:	89 07                	mov    %eax,(%edi)
    37b2:	a1 e3 47 00 00       	mov    0x47e3,%eax
    37b7:	89 47 3f             	mov    %eax,0x3f(%edi)
    37ba:	89 f8                	mov    %edi,%eax
    37bc:	8d 7f 04             	lea    0x4(%edi),%edi
    37bf:	83 e7 fc             	and    $0xfffffffc,%edi
    37c2:	29 f8                	sub    %edi,%eax
    37c4:	be a4 47 00 00       	mov    $0x47a4,%esi
    37c9:	29 c6                	sub    %eax,%esi
    37cb:	83 c0 43             	add    $0x43,%eax
    37ce:	c1 e8 02             	shr    $0x2,%eax
    37d1:	89 c1                	mov    %eax,%ecx
    37d3:	f3 a5                	rep movsl %ds:(%esi),%es:(%edi)
    37d5:	83 ec 0c             	sub    $0xc,%esp
    37d8:	ff 74 24 14          	pushl  0x14(%esp)
    37dc:	e8 fc ff ff ff       	call   37dd <submitr+0x64f>
    37e1:	83 c4 10             	add    $0x10,%esp
    37e4:	b8 ff ff ff ff       	mov    $0xffffffff,%eax
    37e9:	e9 b3 fe ff ff       	jmp    36a1 <submitr+0x513>
    37ee:	8d 84 24 4c 40 00 00 	lea    0x404c(%esp),%eax
    37f5:	50                   	push   %eax
    37f6:	ff 74 24 18          	pushl  0x18(%esp)
    37fa:	ff 74 24 18          	pushl  0x18(%esp)
    37fe:	ff 74 24 18          	pushl  0x18(%esp)
    3802:	68 e8 47 00 00       	push   $0x47e8
    3807:	68 00 20 00 00       	push   $0x2000
    380c:	6a 01                	push   $0x1
    380e:	8d bc 24 68 20 00 00 	lea    0x2068(%esp),%edi
    3815:	57                   	push   %edi
    3816:	e8 fc ff ff ff       	call   3817 <submitr+0x689>
    381b:	b9 ff ff ff ff       	mov    $0xffffffff,%ecx
    3820:	b8 00 00 00 00       	mov    $0x0,%eax
    3825:	f2 ae                	repnz scas %es:(%edi),%al
    3827:	f7 d1                	not    %ecx
    3829:	83 c4 20             	add    $0x20,%esp
    382c:	8d b4 24 4c 20 00 00 	lea    0x204c(%esp),%esi
    3833:	bd 00 00 00 00       	mov    $0x0,%ebp
    3838:	89 cb                	mov    %ecx,%ebx
    383a:	83 eb 01             	sub    $0x1,%ebx
    383d:	8b 7c 24 08          	mov    0x8(%esp),%edi
    3841:	0f 85 2d fd ff ff    	jne    3574 <submitr+0x3e6>
    3847:	8b 44 24 08          	mov    0x8(%esp),%eax
    384b:	89 44 24 40          	mov    %eax,0x40(%esp)
    384f:	c7 44 24 44 00 00 00 	movl   $0x0,0x44(%esp)
    3856:	00 
    3857:	8d 44 24 4c          	lea    0x4c(%esp),%eax
    385b:	89 44 24 48          	mov    %eax,0x48(%esp)
    385f:	b9 00 20 00 00       	mov    $0x2000,%ecx
    3864:	8d 94 24 4c 20 00 00 	lea    0x204c(%esp),%edx
    386b:	8d 44 24 40          	lea    0x40(%esp),%eax
    386f:	e8 6f f8 ff ff       	call   30e3 <rio_readlineb>
    3874:	85 c0                	test   %eax,%eax
    3876:	0f 8e 1c fd ff ff    	jle    3598 <submitr+0x40a>
    387c:	83 ec 0c             	sub    $0xc,%esp
    387f:	8d 84 24 58 80 00 00 	lea    0x8058(%esp),%eax
    3886:	50                   	push   %eax
    3887:	8d 44 24 3c          	lea    0x3c(%esp),%eax
    388b:	50                   	push   %eax
    388c:	8d 84 24 60 60 00 00 	lea    0x6060(%esp),%eax
    3893:	50                   	push   %eax
    3894:	68 61 48 00 00       	push   $0x4861
    3899:	8d 84 24 68 20 00 00 	lea    0x2068(%esp),%eax
    38a0:	50                   	push   %eax
    38a1:	e8 fc ff ff ff       	call   38a2 <submitr+0x714>
    38a6:	8b 44 24 4c          	mov    0x4c(%esp),%eax
    38aa:	83 c4 20             	add    $0x20,%esp
    38ad:	3d c8 00 00 00       	cmp    $0xc8,%eax
    38b2:	0f 85 5d fd ff ff    	jne    3615 <submitr+0x487>
    38b8:	8d 9c 24 4c 20 00 00 	lea    0x204c(%esp),%ebx
    38bf:	bf 72 48 00 00       	mov    $0x4872,%edi
    38c4:	b9 03 00 00 00       	mov    $0x3,%ecx
    38c9:	89 de                	mov    %ebx,%esi
    38cb:	f3 a6                	repz cmpsb %es:(%edi),%ds:(%esi)
    38cd:	0f 97 c0             	seta   %al
    38d0:	1c 00                	sbb    $0x0,%al
    38d2:	84 c0                	test   %al,%al
    38d4:	0f 84 6f fd ff ff    	je     3649 <submitr+0x4bb>
    38da:	b9 00 20 00 00       	mov    $0x2000,%ecx
    38df:	89 da                	mov    %ebx,%edx
    38e1:	8d 44 24 40          	lea    0x40(%esp),%eax
    38e5:	e8 f9 f7 ff ff       	call   30e3 <rio_readlineb>
    38ea:	85 c0                	test   %eax,%eax
    38ec:	7f d1                	jg     38bf <submitr+0x731>
    38ee:	8b 44 24 18          	mov    0x18(%esp),%eax
    38f2:	c7 00 45 72 72 6f    	movl   $0x6f727245,(%eax)
    38f8:	c7 40 04 72 3a 20 43 	movl   $0x43203a72,0x4(%eax)
    38ff:	c7 40 08 6c 69 65 6e 	movl   $0x6e65696c,0x8(%eax)
    3906:	c7 40 0c 74 20 75 6e 	movl   $0x6e752074,0xc(%eax)
    390d:	c7 40 10 61 62 6c 65 	movl   $0x656c6261,0x10(%eax)
    3914:	c7 40 14 20 74 6f 20 	movl   $0x206f7420,0x14(%eax)
    391b:	c7 40 18 72 65 61 64 	movl   $0x64616572,0x18(%eax)
    3922:	c7 40 1c 20 68 65 61 	movl   $0x61656820,0x1c(%eax)
    3929:	c7 40 20 64 65 72 73 	movl   $0x73726564,0x20(%eax)
    3930:	c7 40 24 20 66 72 6f 	movl   $0x6f726620,0x24(%eax)
    3937:	c7 40 28 6d 20 73 65 	movl   $0x6573206d,0x28(%eax)
    393e:	c7 40 2c 72 76 65 72 	movl   $0x72657672,0x2c(%eax)
    3945:	c6 40 30 00          	movb   $0x0,0x30(%eax)
    3949:	83 ec 0c             	sub    $0xc,%esp
    394c:	ff 74 24 14          	pushl  0x14(%esp)
    3950:	e8 fc ff ff ff       	call   3951 <submitr+0x7c3>
    3955:	83 c4 10             	add    $0x10,%esp
    3958:	b8 ff ff ff ff       	mov    $0xffffffff,%eax
    395d:	e9 3f fd ff ff       	jmp    36a1 <submitr+0x513>
    3962:	e8 fc ff ff ff       	call   3963 <submitr+0x7d5>

00003967 <init_timeout>:
    3967:	f3 0f 1e fb          	endbr32 
    396b:	53                   	push   %ebx
    396c:	83 ec 08             	sub    $0x8,%esp
    396f:	8b 5c 24 10          	mov    0x10(%esp),%ebx
    3973:	85 db                	test   %ebx,%ebx
    3975:	75 05                	jne    397c <init_timeout+0x15>
    3977:	83 c4 08             	add    $0x8,%esp
    397a:	5b                   	pop    %ebx
    397b:	c3                   	ret    
    397c:	83 ec 08             	sub    $0x8,%esp
    397f:	68 ba 30 00 00       	push   $0x30ba
    3984:	6a 0e                	push   $0xe
    3986:	e8 fc ff ff ff       	call   3987 <init_timeout+0x20>
    398b:	85 db                	test   %ebx,%ebx
    398d:	b8 00 00 00 00       	mov    $0x0,%eax
    3992:	0f 48 d8             	cmovs  %eax,%ebx
    3995:	89 1c 24             	mov    %ebx,(%esp)
    3998:	e8 fc ff ff ff       	call   3999 <init_timeout+0x32>
    399d:	83 c4 10             	add    $0x10,%esp
    39a0:	eb d5                	jmp    3977 <init_timeout+0x10>

000039a2 <init_driver>:
    39a2:	f3 0f 1e fb          	endbr32 
    39a6:	57                   	push   %edi
    39a7:	56                   	push   %esi
    39a8:	53                   	push   %ebx
    39a9:	83 ec 28             	sub    $0x28,%esp
    39ac:	8b 74 24 38          	mov    0x38(%esp),%esi
    39b0:	65 a1 14 00 00 00    	mov    %gs:0x14,%eax
    39b6:	89 44 24 24          	mov    %eax,0x24(%esp)
    39ba:	31 c0                	xor    %eax,%eax
    39bc:	6a 01                	push   $0x1
    39be:	6a 0d                	push   $0xd
    39c0:	e8 fc ff ff ff       	call   39c1 <init_driver+0x1f>
    39c5:	83 c4 08             	add    $0x8,%esp
    39c8:	6a 01                	push   $0x1
    39ca:	6a 1d                	push   $0x1d
    39cc:	e8 fc ff ff ff       	call   39cd <init_driver+0x2b>
    39d1:	83 c4 08             	add    $0x8,%esp
    39d4:	6a 01                	push   $0x1
    39d6:	6a 1d                	push   $0x1d
    39d8:	e8 fc ff ff ff       	call   39d9 <init_driver+0x37>
    39dd:	83 c4 0c             	add    $0xc,%esp
    39e0:	6a 00                	push   $0x0
    39e2:	6a 01                	push   $0x1
    39e4:	6a 02                	push   $0x2
    39e6:	e8 fc ff ff ff       	call   39e7 <init_driver+0x45>
    39eb:	83 c4 10             	add    $0x10,%esp
    39ee:	85 c0                	test   %eax,%eax
    39f0:	0f 88 a9 00 00 00    	js     3a9f <init_driver+0xfd>
    39f6:	89 c3                	mov    %eax,%ebx
    39f8:	83 ec 0c             	sub    $0xc,%esp
    39fb:	68 78 48 00 00       	push   $0x4878
    3a00:	e8 fc ff ff ff       	call   3a01 <init_driver+0x5f>
    3a05:	83 c4 10             	add    $0x10,%esp
    3a08:	85 c0                	test   %eax,%eax
    3a0a:	0f 84 da 00 00 00    	je     3aea <init_driver+0x148>
    3a10:	8d 7c 24 0c          	lea    0xc(%esp),%edi
    3a14:	c7 44 24 0c 00 00 00 	movl   $0x0,0xc(%esp)
    3a1b:	00 
    3a1c:	c7 44 24 10 00 00 00 	movl   $0x0,0x10(%esp)
    3a23:	00 
    3a24:	c7 44 24 14 00 00 00 	movl   $0x0,0x14(%esp)
    3a2b:	00 
    3a2c:	c7 44 24 18 00 00 00 	movl   $0x0,0x18(%esp)
    3a33:	00 
    3a34:	66 c7 44 24 0c 02 00 	movw   $0x2,0xc(%esp)
    3a3b:	6a 0c                	push   $0xc
    3a3d:	ff 70 0c             	pushl  0xc(%eax)
    3a40:	8b 40 10             	mov    0x10(%eax),%eax
    3a43:	ff 30                	pushl  (%eax)
    3a45:	8d 44 24 1c          	lea    0x1c(%esp),%eax
    3a49:	50                   	push   %eax
    3a4a:	e8 fc ff ff ff       	call   3a4b <init_driver+0xa9>
    3a4f:	66 c7 44 24 1e 3b 6c 	movw   $0x6c3b,0x1e(%esp)
    3a56:	83 c4 0c             	add    $0xc,%esp
    3a59:	6a 10                	push   $0x10
    3a5b:	57                   	push   %edi
    3a5c:	53                   	push   %ebx
    3a5d:	e8 fc ff ff ff       	call   3a5e <init_driver+0xbc>
    3a62:	83 c4 10             	add    $0x10,%esp
    3a65:	85 c0                	test   %eax,%eax
    3a67:	0f 88 e9 00 00 00    	js     3b56 <init_driver+0x1b4>
    3a6d:	83 ec 0c             	sub    $0xc,%esp
    3a70:	53                   	push   %ebx
    3a71:	e8 fc ff ff ff       	call   3a72 <init_driver+0xd0>
    3a76:	66 c7 06 4f 4b       	movw   $0x4b4f,(%esi)
    3a7b:	c6 46 02 00          	movb   $0x0,0x2(%esi)
    3a7f:	83 c4 10             	add    $0x10,%esp
    3a82:	b8 00 00 00 00       	mov    $0x0,%eax
    3a87:	8b 54 24 1c          	mov    0x1c(%esp),%edx
    3a8b:	65 33 15 14 00 00 00 	xor    %gs:0x14,%edx
    3a92:	0f 85 eb 00 00 00    	jne    3b83 <init_driver+0x1e1>
    3a98:	83 c4 20             	add    $0x20,%esp
    3a9b:	5b                   	pop    %ebx
    3a9c:	5e                   	pop    %esi
    3a9d:	5f                   	pop    %edi
    3a9e:	c3                   	ret    
    3a9f:	c7 06 45 72 72 6f    	movl   $0x6f727245,(%esi)
    3aa5:	c7 46 04 72 3a 20 43 	movl   $0x43203a72,0x4(%esi)
    3aac:	c7 46 08 6c 69 65 6e 	movl   $0x6e65696c,0x8(%esi)
    3ab3:	c7 46 0c 74 20 75 6e 	movl   $0x6e752074,0xc(%esi)
    3aba:	c7 46 10 61 62 6c 65 	movl   $0x656c6261,0x10(%esi)
    3ac1:	c7 46 14 20 74 6f 20 	movl   $0x206f7420,0x14(%esi)
    3ac8:	c7 46 18 63 72 65 61 	movl   $0x61657263,0x18(%esi)
    3acf:	c7 46 1c 74 65 20 73 	movl   $0x73206574,0x1c(%esi)
    3ad6:	c7 46 20 6f 63 6b 65 	movl   $0x656b636f,0x20(%esi)
    3add:	66 c7 46 24 74 00    	movw   $0x74,0x24(%esi)
    3ae3:	b8 ff ff ff ff       	mov    $0xffffffff,%eax
    3ae8:	eb 9d                	jmp    3a87 <init_driver+0xe5>
    3aea:	c7 06 45 72 72 6f    	movl   $0x6f727245,(%esi)
    3af0:	c7 46 04 72 3a 20 44 	movl   $0x44203a72,0x4(%esi)
    3af7:	c7 46 08 4e 53 20 69 	movl   $0x6920534e,0x8(%esi)
    3afe:	c7 46 0c 73 20 75 6e 	movl   $0x6e752073,0xc(%esi)
    3b05:	c7 46 10 61 62 6c 65 	movl   $0x656c6261,0x10(%esi)
    3b0c:	c7 46 14 20 74 6f 20 	movl   $0x206f7420,0x14(%esi)
    3b13:	c7 46 18 72 65 73 6f 	movl   $0x6f736572,0x18(%esi)
    3b1a:	c7 46 1c 6c 76 65 20 	movl   $0x2065766c,0x1c(%esi)
    3b21:	c7 46 20 73 65 72 76 	movl   $0x76726573,0x20(%esi)
    3b28:	c7 46 24 65 72 20 61 	movl   $0x61207265,0x24(%esi)
    3b2f:	c7 46 28 64 64 72 65 	movl   $0x65726464,0x28(%esi)
    3b36:	66 c7 46 2c 73 73    	movw   $0x7373,0x2c(%esi)
    3b3c:	c6 46 2e 00          	movb   $0x0,0x2e(%esi)
    3b40:	83 ec 0c             	sub    $0xc,%esp
    3b43:	53                   	push   %ebx
    3b44:	e8 fc ff ff ff       	call   3b45 <init_driver+0x1a3>
    3b49:	83 c4 10             	add    $0x10,%esp
    3b4c:	b8 ff ff ff ff       	mov    $0xffffffff,%eax
    3b51:	e9 31 ff ff ff       	jmp    3a87 <init_driver+0xe5>
    3b56:	83 ec 0c             	sub    $0xc,%esp
    3b59:	68 78 48 00 00       	push   $0x4878
    3b5e:	68 34 48 00 00       	push   $0x4834
    3b63:	6a ff                	push   $0xffffffff
    3b65:	6a 01                	push   $0x1
    3b67:	56                   	push   %esi
    3b68:	e8 fc ff ff ff       	call   3b69 <init_driver+0x1c7>
    3b6d:	83 c4 14             	add    $0x14,%esp
    3b70:	53                   	push   %ebx
    3b71:	e8 fc ff ff ff       	call   3b72 <init_driver+0x1d0>
    3b76:	83 c4 10             	add    $0x10,%esp
    3b79:	b8 ff ff ff ff       	mov    $0xffffffff,%eax
    3b7e:	e9 04 ff ff ff       	jmp    3a87 <init_driver+0xe5>
    3b83:	e8 fc ff ff ff       	call   3b84 <init_driver+0x1e2>

00003b88 <driver_post>:
    3b88:	f3 0f 1e fb          	endbr32 
    3b8c:	53                   	push   %ebx
    3b8d:	83 ec 08             	sub    $0x8,%esp
    3b90:	8b 54 24 10          	mov    0x10(%esp),%edx
    3b94:	8b 44 24 18          	mov    0x18(%esp),%eax
    3b98:	8b 5c 24 1c          	mov    0x1c(%esp),%ebx
    3b9c:	85 c0                	test   %eax,%eax
    3b9e:	75 17                	jne    3bb7 <driver_post+0x2f>
    3ba0:	85 d2                	test   %edx,%edx
    3ba2:	74 05                	je     3ba9 <driver_post+0x21>
    3ba4:	80 3a 00             	cmpb   $0x0,(%edx)
    3ba7:	75 34                	jne    3bdd <driver_post+0x55>
    3ba9:	66 c7 03 4f 4b       	movw   $0x4b4f,(%ebx)
    3bae:	c6 43 02 00          	movb   $0x0,0x2(%ebx)
    3bb2:	83 c4 08             	add    $0x8,%esp
    3bb5:	5b                   	pop    %ebx
    3bb6:	c3                   	ret    
    3bb7:	83 ec 04             	sub    $0x4,%esp
    3bba:	ff 74 24 18          	pushl  0x18(%esp)
    3bbe:	68 8d 48 00 00       	push   $0x488d
    3bc3:	6a 01                	push   $0x1
    3bc5:	e8 fc ff ff ff       	call   3bc6 <driver_post+0x3e>
    3bca:	66 c7 03 4f 4b       	movw   $0x4b4f,(%ebx)
    3bcf:	c6 43 02 00          	movb   $0x0,0x2(%ebx)
    3bd3:	83 c4 10             	add    $0x10,%esp
    3bd6:	b8 00 00 00 00       	mov    $0x0,%eax
    3bdb:	eb d5                	jmp    3bb2 <driver_post+0x2a>
    3bdd:	83 ec 04             	sub    $0x4,%esp
    3be0:	53                   	push   %ebx
    3be1:	ff 74 24 1c          	pushl  0x1c(%esp)
    3be5:	68 a4 48 00 00       	push   $0x48a4
    3bea:	52                   	push   %edx
    3beb:	68 b3 48 00 00       	push   $0x48b3
    3bf0:	68 6c 3b 00 00       	push   $0x3b6c
    3bf5:	68 78 48 00 00       	push   $0x4878
    3bfa:	e8 8f f5 ff ff       	call   318e <submitr>
    3bff:	83 c4 20             	add    $0x20,%esp
    3c02:	eb ae                	jmp    3bb2 <driver_post+0x2a>
    3c04:	66 90                	xchg   %ax,%ax
    3c06:	66 90                	xchg   %ax,%ax
    3c08:	66 90                	xchg   %ax,%ax
    3c0a:	66 90                	xchg   %ax,%ax
    3c0c:	66 90                	xchg   %ax,%ax
    3c0e:	66 90                	xchg   %ax,%ax

00003c10 <__libc_csu_init>:
    3c10:	f3 0f 1e fb          	endbr32 
    3c14:	55                   	push   %ebp
    3c15:	e8 6b 00 00 00       	call   3c85 <__x86.get_pc_thunk.bp>
    3c1a:	81 c5 52 33 00 00    	add    $0x3352,%ebp
    3c20:	57                   	push   %edi
    3c21:	56                   	push   %esi
    3c22:	53                   	push   %ebx
    3c23:	83 ec 0c             	sub    $0xc,%esp
    3c26:	89 eb                	mov    %ebp,%ebx
    3c28:	8b 7c 24 28          	mov    0x28(%esp),%edi
    3c2c:	e8 cf e3 ff ff       	call   2000 <_init>
    3c31:	8d 9d fc fe ff ff    	lea    -0x104(%ebp),%ebx
    3c37:	8d 85 f8 fe ff ff    	lea    -0x108(%ebp),%eax
    3c3d:	29 c3                	sub    %eax,%ebx
    3c3f:	c1 fb 02             	sar    $0x2,%ebx
    3c42:	74 29                	je     3c6d <__libc_csu_init+0x5d>
    3c44:	31 f6                	xor    %esi,%esi
    3c46:	8d b4 26 00 00 00 00 	lea    0x0(%esi,%eiz,1),%esi
    3c4d:	8d 76 00             	lea    0x0(%esi),%esi
    3c50:	83 ec 04             	sub    $0x4,%esp
    3c53:	57                   	push   %edi
    3c54:	ff 74 24 2c          	pushl  0x2c(%esp)
    3c58:	ff 74 24 2c          	pushl  0x2c(%esp)
    3c5c:	ff 94 b5 f8 fe ff ff 	call   *-0x108(%ebp,%esi,4)
    3c63:	83 c6 01             	add    $0x1,%esi
    3c66:	83 c4 10             	add    $0x10,%esp
    3c69:	39 f3                	cmp    %esi,%ebx
    3c6b:	75 e3                	jne    3c50 <__libc_csu_init+0x40>
    3c6d:	83 c4 0c             	add    $0xc,%esp
    3c70:	5b                   	pop    %ebx
    3c71:	5e                   	pop    %esi
    3c72:	5f                   	pop    %edi
    3c73:	5d                   	pop    %ebp
    3c74:	c3                   	ret    
    3c75:	8d b4 26 00 00 00 00 	lea    0x0(%esi,%eiz,1),%esi
    3c7c:	8d 74 26 00          	lea    0x0(%esi,%eiz,1),%esi

00003c80 <__libc_csu_fini>:
    3c80:	f3 0f 1e fb          	endbr32 
    3c84:	c3                   	ret    

00003c85 <__x86.get_pc_thunk.bp>:
    3c85:	8b 2c 24             	mov    (%esp),%ebp
    3c88:	c3                   	ret    

Disassembly of section .fini:

00003c8c <_fini>:
    3c8c:	f3 0f 1e fb          	endbr32 
    3c90:	53                   	push   %ebx
    3c91:	83 ec 08             	sub    $0x8,%esp
    3c94:	e8 97 e7 ff ff       	call   2430 <__x86.get_pc_thunk.bx>
    3c99:	81 c3 d3 32 00 00    	add    $0x32d3,%ebx
    3c9f:	83 c4 08             	add    $0x8,%esp
    3ca2:	5b                   	pop    %ebx
    3ca3:	c3                   	ret    
